(dp0
S'HBP_CELL:0000065'
p1
(lp2
(lp3
VABA_REGION:315
p4
aS'Missing:Axonal'
p5
aasS'HBP_CELL:0000064'
p6
(lp7
(lp8
VABA_REGION:315
p9
aVHBP_MORPHOLOGY:0000018
p10
aVHBP_MORPHOLOGY:0000019
p11
aa(lp12
VABA_REGION:315
p13
aS'Missing:arcade'
p14
aa(lp15
VABA_REGION:315
p16
aS'Missing:willow'
p17
aa(lp18
VABA_REGION:315
p19
aVNCBI_GENE:54403
p20
aasS'HBP_CELL:0000067'
p21
(lp22
(lp23
VABA_REGION:315
p24
aS'Size:Large'
p25
aS'Missing:Axon'
p26
aa(lp27
VABA_REGION:315
p28
aasS'HBP_CELL:0000066'
p29
(lp30
(lp31
VABA_REGION:315
p32
aS'Orientation:Descending'
p33
aS'Missing:Axon'
p34
aa(lp35
VABA_REGION:315
p36
aasS'HBP_CELL:0000061'
p37
(lp38
(lp39
VABA_REGION:315
p40
aVHBP_MORPHOLOGY:0000008
p41
aS'Missing:cell like'
p42
aa(lp43
VABA_REGION:315
p44
aasS'HBP_CELL:0000060'
p45
(lp46
(lp47
VABA_REGION:315
p48
aVHBP_MORPHOLOGY:0000007
p49
aa(lp50
VABA_REGION:315
p51
aS'Missing:Axo-axonic'
p52
aa(lp53
VABA_REGION:315
p54
aVncbi:11103
p55
aasS'HBP_CELL:0000063'
p56
(lp57
(lp58
VABA_REGION:315
p59
aS'Size:Large'
p60
aVHBP_MORPHOLOGY:0000019
p61
aa(lp62
VABA_REGION:315
p63
aasS'HBP_CELL:0000062'
p64
(lp65
(lp66
VABA_REGION:315
p67
aS'Size:Small'
p68
aVHBP_MORPHOLOGY:0000019
p69
aa(lp70
VABA_REGION:315
p71
aasS'HBP_CELL:0000115'
p72
(lp73
(lp74
VABA_REGION:315
p75
aVHBP_LAYER:0000005
p76
aVHBP_MORPHOLOGY:0000020
p77
aa(lp78
VABA_REGION:315
p79
aVHBP_LAYER:0000005
p80
aasS'HBP_CELL:0000114'
p81
(lp82
(lp83
VABA_REGION:315
p84
aVHBP_LAYER:0000004
p85
aVHBP_MORPHOLOGY:0000020
p86
aa(lp87
VABA_REGION:315
p88
aVHBP_LAYER:0000004
p89
aasS'HBP_CELL:0000117'
p90
(lp91
(lp92
VABA_REGION:315
p93
aVHBP_LAYER:0000111
p94
aVHBP_MORPHOLOGY:0000017
p95
aa(lp96
VABA_REGION:315
p97
aa(lp98
VABA_REGION:315
p99
aVHBP_LAYER:0000111
p100
aasS'HBP_CELL:0000116'
p101
(lp102
(lp103
VABA_REGION:315
p104
aVHBP_LAYER:0000006
p105
aVHBP_MORPHOLOGY:0000020
p106
aa(lp107
VABA_REGION:315
p108
aVHBP_LAYER:0000006
p109
aasS'HBP_CELL:0000069'
p110
(lp111
(lp112
VABA_REGION:315
p113
aS'Size:Small'
p114
aS'Missing:Axon'
p115
aa(lp116
VABA_REGION:315
p117
aa(lp118
VABA_REGION:315
p119
aasS'HBP_CELL:0000068'
p120
(lp121
(lp122
VABA_REGION:315
p123
aS'Orientation:Horizontal'
p124
aVHBP_MORPHOLOGY:0000027
p125
aS'Missing:Axon'
p126
aS'Missing:Axon'
p127
aa(lp128
VABA_REGION:315
p129
aasS'HBP_CELL:0000113'
p130
(lp131
(lp132
VABA_REGION:315
p133
aVHBP_LAYER:0000111
p134
aVHBP_MORPHOLOGY:0000020
p135
aa(lp136
VABA_REGION:315
p137
aa(lp138
VABA_REGION:315
p139
aVHBP_LAYER:0000111
p140
aasS'HBP_CELL:0000112'
p141
(lp142
(lp143
VABA_REGION:315
p144
aVHBP_LAYER:0000006
p145
aVHBP_MORPHOLOGY:0000005
p146
aa(lp147
VABA_REGION:315
p148
aVHBP_LAYER:0000006
p149
aasS'HBP_CELL:0000119'
p150
(lp151
(lp152
VABA_REGION:315
p153
aVHBP_LAYER:0000005
p154
aVHBP_MORPHOLOGY:0000017
p155
aa(lp156
VABA_REGION:315
p157
aVHBP_LAYER:0000005
p158
aasS'HBP_CELL:0000118'
p159
(lp160
(lp161
VABA_REGION:315
p162
aVHBP_LAYER:0000004
p163
aVHBP_MORPHOLOGY:0000017
p164
aa(lp165
VABA_REGION:315
p166
aVHBP_LAYER:0000004
p167
aasS'HBP_CELL:0000098'
p168
(lp169
(lp170
VABA_REGION:315
p171
aVHBP_LAYER:0000004
p172
aVHBP_MORPHOLOGY:0000006
p173
aa(lp174
VABA_REGION:315
p175
aVHBP_LAYER:0000004
p176
aasS'HBP_CELL:0000099'
p177
(lp178
(lp179
VABA_REGION:315
p180
aVHBP_LAYER:0000005
p181
aVHBP_MORPHOLOGY:0000006
p182
aa(lp183
VABA_REGION:315
p184
aVHBP_LAYER:0000005
p185
aasS'HBP_CELL:0000091'
p186
(lp187
(lp188
VABA_REGION:315
p189
aVHBP_LAYER:0000001
p190
aVHBP_MORPHOLOGY:0000020
p191
aa(lp192
VABA_REGION:315
p193
aVHBP_LAYER:0000001
p194
aVHBP_NEUROTRANSMITTER:0000007
p195
aasS'HBP_CELL:0000092'
p196
(lp197
(lp198
VABA_REGION:315
p199
aVHBP_LAYER:0000001
p200
aVHBP_MORPHOLOGY:0000020
p201
aa(lp202
VABA_REGION:315
p203
aVHBP_LAYER:0000001
p204
aasS'HBP_CELL:0000093'
p205
(lp206
(lp207
VABA_REGION:315
p208
aVHBP_LAYER:0000001
p209
aS'Orientation:Descending'
p210
aS'Missing:Axon'
p211
aa(lp212
VABA_REGION:315
p213
aVHBP_LAYER:0000001
p214
aasS'HBP_CELL:0000094'
p215
(lp216
(lp217
VABA_REGION:315
p218
aVHBP_LAYER:0000001
p219
aS'Orientation:Horizontal'
p220
aVHBP_MORPHOLOGY:0000027
p221
aS'Missing:Axon'
p222
aS'Missing:Axon'
p223
aa(lp224
VABA_REGION:315
p225
aVHBP_LAYER:0000001
p226
aasS'HBP_CELL:0000095'
p227
(lp228
(lp229
VABA_REGION:315
p230
aVHBP_LAYER:0000001
p231
aS'Size:Large'
p232
aS'Missing:Axon'
p233
aa(lp234
VABA_REGION:315
p235
aVHBP_LAYER:0000001
p236
aasS'HBP_CELL:0000096'
p237
(lp238
(lp239
VABA_REGION:315
p240
aVHBP_LAYER:0000001
p241
aS'Size:Small'
p242
aS'Missing:Axon'
p243
aa(lp244
VABA_REGION:315
p245
aVHBP_LAYER:0000001
p246
aasS'HBP_CELL:0000097'
p247
(lp248
(lp249
VABA_REGION:315
p250
aVHBP_LAYER:0000111
p251
aVHBP_MORPHOLOGY:0000006
p252
aa(lp253
VABA_REGION:315
p254
aa(lp255
VABA_REGION:315
p256
aVHBP_LAYER:0000111
p257
aasS'HBP_CELL:0000010'
p258
(lp259
(lp260
VABA_REGION:315
p261
aasS'HBP_CELL:0000011'
p262
(lp263
(lp264
VABA_REGION:315
p265
aVNCBI_GENE:109648
p266
aa(lp267
VABA_REGION:315
p268
aVNCBI_GENE:109648
p269
aasS'HBP_CELL:0000012'
p270
(lp271
(lp272
VABA_REGION:315
p273
aVNCBI_GENE:22355
p274
aa(lp275
VABA_REGION:315
p276
aVNCBI_GENE:22353
p277
aasS'HBP_CELL:0000013'
p278
(lp279
(lp280
VABA_REGION:315
p281
aVNCBI_GENE:12424
p282
aa(lp283
VABA_REGION:315
p284
aVNCBI_GENE:12424
p285
aasS'HBP_CELL:0000014'
p286
(lp287
(lp288
VABA_REGION:315
p289
aVNCBI_GENE:12307
p290
aa(lp291
VABA_REGION:315
p292
aVNCBI_GENE:12307
p293
aS'Missing:1 expressing'
p294
aa(lp295
VABA_REGION:315
p296
aS'Missing:CB+'
p297
aasS'HBP_CELL:0000015'
p298
(lp299
(lp300
VABA_REGION:315
p301
aVNCBI_GENE:20604
p302
aa(lp303
VABA_REGION:315
p304
aVNCBI_GENE:20604
p305
aa(lp306
VABA_REGION:315
p307
aVNCBI_GENE:20604
p308
aasS'HBP_CELL:0000016'
p309
(lp310
(lp311
VABA_REGION:315
p312
aVNCBI_GENE:19293
p313
aa(lp314
VABA_REGION:315
p315
aVNCBI_GENE:19293
p316
aa(lp317
VABA_REGION:315
p318
aVNCBI_GENE:19293
p319
aasS'HBP_CELL:0000017'
p320
(lp321
(lp322
VABA_REGION:315
p323
aVNCBI_GENE:12308
p324
aa(lp325
VABA_REGION:315
p326
aVNCBI_GENE:12308
p327
aa(lp328
VABA_REGION:315
p329
aS'Missing:CR+'
p330
aasS'HBP_CELL:0000018'
p331
(lp332
(lp333
VABA_REGION:315
p334
aVHBP_MORPHOLOGY:0000001
p335
aa(lp336
VABA_REGION:315
p337
aVABA_REGION:907
p338
aasS'HBP_CELL:0000019'
p339
(lp340
(lp341
VABA_REGION:315
p342
aS'Function:Inhibitory'
p343
aasS'HBP_CELL:0000089'
p344
(lp345
(lp346
VABA_REGION:315
p347
aVHBP_EPHYS:0000020
p348
aVHBP_EPHYS_TRIGGER:0000001
p349
aa(lp350
VABA_REGION:315
p351
aasS'HBP_CELL:0000088'
p352
(lp353
(lp354
VABA_REGION:315
p355
aVHBP_EPHYS:0000020
p356
aS'Missing:Non'
p357
aVHBP_EPHYS_TRIGGER:0000001
p358
aa(lp359
VABA_REGION:315
p360
aasS'HBP_CELL:0000083'
p361
(lp362
(lp363
VABA_REGION:315
p364
aVHBP_EPHYS_TRIGGER:0000005
p365
aVHBP_EPHYS_TRIGGER:0000006
p366
aa(lp367
VABA_REGION:315
p368
aVHBP_EPHYS_TRIGGER:0000006
p369
aasS'HBP_CELL:0000082'
p370
(lp371
(lp372
VABA_REGION:315
p373
aVHBP_EPHYS:0000050
p374
aVHBP_EPHYS_TRIGGER:0000001
p375
aa(lp376
VABA_REGION:315
p377
aasS'HBP_CELL:0000081'
p378
(lp379
(lp380
VABA_REGION:315
p381
aVHBP_EPHYS:0000050
p382
aS'Missing:Non'
p383
aVHBP_EPHYS_TRIGGER:0000001
p384
aa(lp385
VABA_REGION:315
p386
aasS'HBP_CELL:0000080'
p387
(lp388
(lp389
VABA_REGION:315
p390
aVHBP_EPHYS:0000050
p391
aVHBP_EPHYS:0000010
p392
aa(lp393
VABA_REGION:315
p394
aasS'HBP_CELL:0000087'
p395
(lp396
(lp397
VABA_REGION:315
p398
aVHBP_EPHYS:0000020
p399
aVHBP_EPHYS_TRIGGER:0000006
p400
aa(lp401
VABA_REGION:315
p402
aVHBP_EPHYS_TRIGGER:0000006
p403
aasS'HBP_CELL:0000086'
p404
(lp405
(lp406
VABA_REGION:315
p407
aVHBP_EPHYS_TRIGGER:0000005
p408
aVHBP_EPHYS_TRIGGER:0000001
p409
aa(lp410
VABA_REGION:315
p411
aasS'HBP_CELL:0000085'
p412
(lp413
(lp414
VABA_REGION:315
p415
aVHBP_EPHYS_TRIGGER:0000005
p416
aVHBP_EPHYS:0000010
p417
aa(lp418
VABA_REGION:315
p419
aasS'HBP_CELL:0000084'
p420
(lp421
(lp422
VABA_REGION:315
p423
aVHBP_EPHYS_TRIGGER:0000005
p424
aS'Missing:Non'
p425
aVHBP_EPHYS_TRIGGER:0000001
p426
aa(lp427
VABA_REGION:315
p428
aasS'HBP_CELL:0000071'
p429
(lp430
(lp431
VABA_REGION:315
p432
aVHBP_EPHYS_TRIGGER:0000003
p433
aasS'HBP_CELL:0000003'
p434
(lp435
(lp436
VABA_REGION:315
p437
aasS'HBP_CELL:0000002'
p438
(lp439
(lp440
VABA_REGION:315
p441
aVHBP_MORPHOLOGY:0000060
p442
aasS'HBP_CELL:0000001'
p443
(lp444
(lp445
VABA_REGION:315
p446
aasS'HBP_CELL:0000000'
p447
(lp448
(lp449
VABA_REGION:315
p450
aasS'HBP_CELL:0000007'
p451
(lp452
(lp453
VABA_REGION:315
p454
aasS'HBP_CELL:0000006'
p455
(lp456
(lp457
VABA_REGION:315
p458
aasS'HBP_CELL:0000005'
p459
(lp460
(lp461
VABA_REGION:315
p462
aasS'HBP_CELL:0000004'
p463
(lp464
(lp465
VABA_REGION:315
p466
aasS'HBP_CELL:0000009'
p467
(lp468
(lp469
VABA_REGION:315
p470
aasS'HBP_CELL:0000008'
p471
(lp472
(lp473
VABA_REGION:315
p474
aS'Function:synaptic'
p475
aasS'HBP_CELL:0000078'
p476
(lp477
(lp478
VABA_REGION:315
p479
aVHBP_EPHYS:0000020
p480
aVHBP_EPHYS_TRIGGER:0000004
p481
aasS'HBP_CELL:0000079'
p482
(lp483
(lp484
VABA_REGION:315
p485
aVHBP_EPHYS:0000050
p486
aVHBP_EPHYS_TRIGGER:0000006
p487
aa(lp488
VABA_REGION:315
p489
aVHBP_EPHYS_TRIGGER:0000006
p490
aasS'HBP_CELL:0000036'
p491
(lp492
(lp493
VABA_REGION:315
p494
aVHBP_MORPHOLOGY:0000031
p495
aVHBP_MORPHOLOGY:0000001
p496
aVHBP_LAYER:0000001
p497
aa(lp498
VABA_REGION:315
p499
aVHBP_LAYER:0000001
p500
aasS'HBP_CELL:0000037'
p501
(lp502
(lp503
VABA_REGION:315
p504
aVHBP_MORPHOLOGY:0000014
p505
aVHBP_MORPHOLOGY:0000001
p506
aa(lp507
VABA_REGION:315
p508
aasS'HBP_CELL:0000034'
p509
(lp510
(lp511
VABA_REGION:315
p512
aS'Function:projection'
p513
aasS'HBP_CELL:0000035'
p514
(lp515
(lp516
VABA_REGION:315
p517
aVHBP_MORPHOLOGY:0000031
p518
aVHBP_MORPHOLOGY:0000001
p519
aVHBP_LAYER:0000004
p520
aa(lp521
VABA_REGION:315
p522
aVHBP_LAYER:0000004
p523
aasS'HBP_CELL:0000032'
p524
(lp525
(lp526
VABA_REGION:315
p527
aS'Size:Narrow'
p528
aVHBP_MORPHOLOGY:0000001
p529
aVABA_REGION:549
p530
aa(lp531
VABA_REGION:315
p532
aasS'HBP_CELL:0000033'
p533
(lp534
(lp535
VABA_REGION:315
p536
aasS'HBP_CELL:0000030'
p537
(lp538
(lp539
VABA_REGION:315
p540
aS'Orientation:Horizontal'
p541
aVHBP_MORPHOLOGY:0000027
p542
aVHBP_MORPHOLOGY:0000001
p543
aa(lp544
VABA_REGION:315
p545
aasS'HBP_CELL:0000031'
p546
(lp547
(lp548
VABA_REGION:315
p549
aVHBP_MORPHOLOGY:0000006
p550
aVHBP_MORPHOLOGY:0000001
p551
aa(lp552
VABA_REGION:315
p553
aasS'HBP_CELL:0000038'
p554
(lp555
(lp556
VABA_REGION:315
p557
aVHBP_MORPHOLOGY:0000015
p558
aVHBP_MORPHOLOGY:0000001
p559
aa(lp560
VABA_REGION:315
p561
aasS'HBP_CELL:0000039'
p562
(lp563
(lp564
VABA_REGION:315
p565
aVHBP_MORPHOLOGY:0000009
p566
aVHBP_MORPHOLOGY:0000014
p567
aVHBP_MORPHOLOGY:0000001
p568
aa(lp569
VABA_REGION:315
p570
aasS'HBP_CELL:0000070'
p571
(lp572
(lp573
VABA_REGION:315
p574
aVHBP_EPHYS_TRIGGER:0000004
p575
aasS'HBP_CELL:0000029'
p576
(lp577
(lp578
VABA_REGION:315
p579
aVHBP_LAYER:0000006
p580
aVHBP_MORPHOLOGY:0000001
p581
aa(lp582
VABA_REGION:315
p583
aVHBP_LAYER:0000004
p584
aVABA_REGION:907
p585
aasS'HBP_CELL:0000028'
p586
(lp587
(lp588
VABA_REGION:315
p589
aVHBP_LAYER:0000111
p590
aVHBP_MORPHOLOGY:0000001
p591
aa(lp592
VABA_REGION:315
p593
aVABA_REGION:907
p594
aa(lp595
VABA_REGION:315
p596
aVHBP_LAYER:0000111
p597
aVABA_REGION:907
p598
aasS'HBP_CELL:0000021'
p599
(lp600
(lp601
VABA_REGION:315
p602
aVHBP_NEUROTRANSMITTER:0000004
p603
aasS'HBP_CELL:0000020'
p604
(lp605
(lp606
VABA_REGION:315
p607
aS'Function:Excitatory'
p608
aasS'HBP_CELL:0000023'
p609
(lp610
(lp611
VABA_REGION:315
p612
aVHBP_MORPHOLOGY:0000031
p613
aVHBP_MORPHOLOGY:0000001
p614
aa(lp615
VABA_REGION:315
p616
aasS'HBP_CELL:0000022'
p617
(lp618
(lp619
VABA_REGION:315
p620
aVHBP_NEUROTRANSMITTER:0000003
p621
aasS'HBP_CELL:0000025'
p622
(lp623
(lp624
VABA_REGION:315
p625
aVHBP_MORPHOLOGY:0000011
p626
aVHBP_MORPHOLOGY:0000013
p627
aa(lp628
VABA_REGION:315
p629
aa(lp630
VABA_REGION:315
p631
aasS'HBP_CELL:0000024'
p632
(lp633
(lp634
VABA_REGION:315
p635
aVHBP_MORPHOLOGY:0000074
p636
aVHBP_MORPHOLOGY:0000001
p637
aa(lp638
VABA_REGION:315
p639
aasS'HBP_CELL:0000027'
p640
(lp641
(lp642
VABA_REGION:315
p643
aVHBP_MORPHOLOGY:0000013
p644
aVHBP_MORPHOLOGY:0000001
p645
aa(lp646
VABA_REGION:315
p647
aa(lp648
VABA_REGION:315
p649
aVHBP_NEUROTRANSMITTER:0000015
p650
aasS'HBP_CELL:0000026'
p651
(lp652
(lp653
VABA_REGION:315
p654
aVHBP_LAYER:0000004
p655
aVHBP_MORPHOLOGY:0000011
p656
aVHBP_MORPHOLOGY:0000013
p657
aa(lp658
VABA_REGION:315
p659
aVHBP_LAYER:0000004
p660
aasS'HBP_CELL:0000124'
p661
(lp662
(lp663
VABA_REGION:315
p664
aVHBP_LAYER:0000006
p665
aS'Size:Large'
p666
aVHBP_MORPHOLOGY:0000019
p667
aa(lp668
VABA_REGION:315
p669
aVHBP_LAYER:0000006
p670
aasS'HBP_CELL:0000125'
p671
(lp672
(lp673
VABA_REGION:315
p674
aVHBP_LAYER:0000111
p675
aVHBP_MORPHOLOGY:0000018
p676
aVHBP_MORPHOLOGY:0000019
p677
aa(lp678
VABA_REGION:315
p679
aVNCBI_GENE:54403
p680
aa(lp681
VABA_REGION:315
p682
aVHBP_LAYER:0000111
p683
aVNCBI_GENE:54403
p684
aasS'HBP_CELL:0000126'
p685
(lp686
(lp687
VABA_REGION:315
p688
aVHBP_LAYER:0000111
p689
aS'Size:Small'
p690
aVHBP_MORPHOLOGY:0000019
p691
aa(lp692
VABA_REGION:315
p693
aa(lp694
VABA_REGION:315
p695
aVHBP_LAYER:0000111
p696
aasS'HBP_CELL:0000127'
p697
(lp698
(lp699
VABA_REGION:315
p700
aVHBP_LAYER:0000004
p701
aS'Size:Small'
p702
aVHBP_MORPHOLOGY:0000019
p703
aa(lp704
VABA_REGION:315
p705
aVHBP_LAYER:0000004
p706
aasS'HBP_CELL:0000120'
p707
(lp708
(lp709
VABA_REGION:315
p710
aVHBP_LAYER:0000006
p711
aVHBP_MORPHOLOGY:0000017
p712
aa(lp713
VABA_REGION:315
p714
aVHBP_LAYER:0000006
p715
aasS'HBP_CELL:0000121'
p716
(lp717
(lp718
VABA_REGION:315
p719
aVHBP_LAYER:0000111
p720
aS'Size:Large'
p721
aVHBP_MORPHOLOGY:0000019
p722
aa(lp723
VABA_REGION:315
p724
aa(lp725
VABA_REGION:315
p726
aVHBP_LAYER:0000111
p727
aasS'HBP_CELL:0000122'
p728
(lp729
(lp730
VABA_REGION:315
p731
aVHBP_LAYER:0000004
p732
aS'Size:Large'
p733
aVHBP_MORPHOLOGY:0000019
p734
aa(lp735
VABA_REGION:315
p736
aVHBP_LAYER:0000004
p737
aasS'HBP_CELL:0000123'
p738
(lp739
(lp740
VABA_REGION:315
p741
aVHBP_LAYER:0000005
p742
aS'Size:Large'
p743
aVHBP_MORPHOLOGY:0000019
p744
aa(lp745
VABA_REGION:315
p746
aVHBP_LAYER:0000005
p747
aasS'HBP_CELL:0000128'
p748
(lp749
(lp750
VABA_REGION:315
p751
aVHBP_LAYER:0000005
p752
aS'Size:Small'
p753
aVHBP_MORPHOLOGY:0000019
p754
aa(lp755
VABA_REGION:315
p756
aVHBP_LAYER:0000005
p757
aasS'HBP_CELL:0000129'
p758
(lp759
(lp760
VABA_REGION:315
p761
aVHBP_LAYER:0000006
p762
aS'Size:Small'
p763
aVHBP_MORPHOLOGY:0000019
p764
aa(lp765
VABA_REGION:315
p766
aVHBP_LAYER:0000006
p767
aasS'HBP_CELL:0000058'
p768
(lp769
(lp770
VABA_REGION:315
p771
aVHBP_MORPHOLOGY:0000020
p772
aa(lp773
VABA_REGION:315
p774
aVHBP_NEUROTRANSMITTER:0000007
p775
aasS'HBP_CELL:0000059'
p776
(lp777
(lp778
VABA_REGION:315
p779
aVHBP_MORPHOLOGY:0000005
p780
aa(lp781
VABA_REGION:315
p782
aasS'HBP_CELL:0000054'
p783
(lp784
(lp785
VABA_REGION:315
p786
aVHBP_MORPHOLOGY:0000003
p787
aa(lp788
VABA_REGION:315
p789
aasS'HBP_CELL:0000055'
p790
(lp791
(lp792
VABA_REGION:315
p793
aVHBP_MORPHOLOGY:0000017
p794
aa(lp795
VABA_REGION:315
p796
aasS'HBP_CELL:0000056'
p797
(lp798
(lp799
VABA_REGION:315
p800
aVHBP_MORPHOLOGY:0000020
p801
aa(lp802
VABA_REGION:315
p803
aasS'HBP_CELL:0000057'
p804
(lp805
(lp806
VABA_REGION:315
p807
aVHBP_MORPHOLOGY:0000020
p808
aa(lp809
VABA_REGION:315
p810
aasS'HBP_CELL:0000050'
p811
(lp812
(lp813
VABA_REGION:315
p814
aVHBP_LAYER:0000005
p815
aVHBP_MORPHOLOGY:0000015
p816
aVHBP_MORPHOLOGY:0000001
p817
aa(lp818
VABA_REGION:315
p819
aVHBP_LAYER:0000005
p820
aasS'HBP_CELL:0000051'
p821
(lp822
(lp823
VABA_REGION:315
p824
aVHBP_LAYER:0000006
p825
aVHBP_MORPHOLOGY:0000031
p826
aVHBP_MORPHOLOGY:0000001
p827
aVHBP_LAYER:0000001
p828
aVUNKN_REGION:2906
p829
aa(lp830
VABA_REGION:315
p831
aVHBP_LAYER:0000006
p832
aVHBP_LAYER:0000001
p833
aasS'HBP_CELL:0000052'
p834
(lp835
(lp836
VABA_REGION:315
p837
aVHBP_MORPHOLOGY:0000019
p838
aa(lp839
VABA_REGION:315
p840
aasS'HBP_CELL:0000053'
p841
(lp842
(lp843
VABA_REGION:315
p844
aVHBP_MORPHOLOGY:0000006
p845
aa(lp846
VABA_REGION:315
p847
aasS'HBP_CELL:0000133'
p848
(lp849
(lp850
VABA_REGION:315
p851
aVHBP_NEUROTRANSMITTER:0000003
p852
aasS'HBP_CELL:0000132'
p853
(lp854
(lp855
VABA_REGION:315
p856
aVHBP_LAYER:0000006
p857
aVHBP_MORPHOLOGY:0000018
p858
aVHBP_MORPHOLOGY:0000019
p859
aa(lp860
VABA_REGION:315
p861
aVHBP_LAYER:0000006
p862
aVNCBI_GENE:54403
p863
aasS'HBP_CELL:0000131'
p864
(lp865
(lp866
VABA_REGION:315
p867
aVHBP_LAYER:0000005
p868
aVHBP_MORPHOLOGY:0000018
p869
aVHBP_MORPHOLOGY:0000019
p870
aa(lp871
VABA_REGION:315
p872
aVHBP_LAYER:0000005
p873
aVNCBI_GENE:54403
p874
aasS'HBP_CELL:0000130'
p875
(lp876
(lp877
VABA_REGION:315
p878
aVHBP_LAYER:0000004
p879
aVHBP_MORPHOLOGY:0000018
p880
aVHBP_MORPHOLOGY:0000019
p881
aa(lp882
VABA_REGION:315
p883
aVHBP_LAYER:0000004
p884
aVNCBI_GENE:54403
p885
aasS'HBP_CELL:0000111'
p886
(lp887
(lp888
VABA_REGION:315
p889
aVHBP_LAYER:0000005
p890
aVHBP_MORPHOLOGY:0000005
p891
aa(lp892
VABA_REGION:315
p893
aVHBP_LAYER:0000005
p894
aasS'HBP_CELL:0000049'
p895
(lp896
(lp897
VABA_REGION:315
p898
aVHBP_LAYER:0000005
p899
aVHBP_MORPHOLOGY:0000074
p900
aVHBP_MORPHOLOGY:0000001
p901
aa(lp902
VABA_REGION:315
p903
aVHBP_LAYER:0000005
p904
aasS'HBP_CELL:0000048'
p905
(lp906
(lp907
VABA_REGION:315
p908
aVHBP_LAYER:0000005
p909
aVHBP_MORPHOLOGY:0000009
p910
aVHBP_MORPHOLOGY:0000014
p911
aVHBP_MORPHOLOGY:0000001
p912
aa(lp913
VABA_REGION:315
p914
aVHBP_LAYER:0000005
p915
aasS'HBP_CELL:0000047'
p916
(lp917
(lp918
VABA_REGION:315
p919
aVHBP_LAYER:0000006
p920
aVHBP_MORPHOLOGY:0000006
p921
aVHBP_MORPHOLOGY:0000001
p922
aa(lp923
VABA_REGION:315
p924
aVHBP_LAYER:0000006
p925
aasS'HBP_CELL:0000046'
p926
(lp927
(lp928
VABA_REGION:315
p929
aVHBP_LAYER:0000006
p930
aS'Orientation:Inverted'
p931
aVHBP_MORPHOLOGY:0000001
p932
aa(lp933
VABA_REGION:315
p934
aVHBP_LAYER:0000006
p935
aasS'HBP_CELL:0000045'
p936
(lp937
(lp938
VABA_REGION:315
p939
aVHBP_LAYER:0000006
p940
aVHBP_MORPHOLOGY:0000074
p941
aVHBP_MORPHOLOGY:0000001
p942
aa(lp943
VABA_REGION:315
p944
aVHBP_LAYER:0000006
p945
aasS'HBP_CELL:0000044'
p946
(lp947
(lp948
VABA_REGION:315
p949
aVHBP_LAYER:0000005
p950
aVHBP_EPHYS:0000020
p951
aVHBP_MORPHOLOGY:0000010
p952
aVHBP_MORPHOLOGY:0000014
p953
aVHBP_MORPHOLOGY:0000001
p954
aa(lp955
VABA_REGION:315
p956
aVHBP_LAYER:0000005
p957
aasS'HBP_CELL:0000043'
p958
(lp959
(lp960
VABA_REGION:315
p961
aVHBP_LAYER:0000006
p962
aVHBP_MORPHOLOGY:0000031
p963
aVHBP_MORPHOLOGY:0000001
p964
aVHBP_LAYER:0000004
p965
aVUNKN_REGION:4078
p966
aa(lp967
VABA_REGION:315
p968
aVHBP_LAYER:0000006
p969
aVHBP_LAYER:0000004
p970
aasS'HBP_CELL:0000042'
p971
(lp972
(lp973
VABA_REGION:315
p974
aS'Orientation:Inverted'
p975
aVHBP_MORPHOLOGY:0000001
p976
aa(lp977
VABA_REGION:315
p978
aa(lp979
VABA_REGION:315
p980
aasS'HBP_CELL:0000041'
p981
(lp982
(lp983
VABA_REGION:315
p984
aVHBP_MORPHOLOGY:0000074
p985
aVHBP_MORPHOLOGY:0000016
p986
aVHBP_MORPHOLOGY:0000001
p987
aa(lp988
VABA_REGION:315
p989
aasS'HBP_CELL:0000040'
p990
(lp991
(lp992
VABA_REGION:315
p993
aVHBP_EPHYS:0000020
p994
aVHBP_MORPHOLOGY:0000010
p995
aVHBP_MORPHOLOGY:0000014
p996
aVHBP_MORPHOLOGY:0000001
p997
aa(lp998
VABA_REGION:315
p999
aasS'HBP_CELL:0000072'
p1000
(lp1001
(lp1002
VABA_REGION:315
p1003
aVHBP_EPHYS_TRIGGER:0000006
p1004
aa(lp1005
VABA_REGION:315
p1006
aVHBP_EPHYS_TRIGGER:0000006
p1007
aasS'HBP_CELL:0000073'
p1008
(lp1009
(lp1010
VABA_REGION:315
p1011
aS'Missing:Non'
p1012
aVHBP_EPHYS_TRIGGER:0000001
p1013
aa(lp1014
VABA_REGION:315
p1015
aasS'HBP_CELL:0000108'
p1016
(lp1017
(lp1018
VABA_REGION:315
p1019
aVHBP_LAYER:0000006
p1020
aVHBP_MORPHOLOGY:0000007
p1021
aa(lp1022
VABA_REGION:315
p1023
aVHBP_LAYER:0000006
p1024
aVncbi:11103
p1025
aasS'HBP_CELL:0000109'
p1026
(lp1027
(lp1028
VABA_REGION:315
p1029
aVHBP_LAYER:0000111
p1030
aVHBP_MORPHOLOGY:0000005
p1031
aa(lp1032
VABA_REGION:315
p1033
aa(lp1034
VABA_REGION:315
p1035
aVHBP_LAYER:0000111
p1036
aasS'HBP_CELL:0000076'
p1037
(lp1038
(lp1039
VABA_REGION:315
p1040
aVHBP_EPHYS:0000050
p1041
aVHBP_EPHYS_TRIGGER:0000004
p1042
aasS'HBP_CELL:0000077'
p1043
(lp1044
(lp1045
VABA_REGION:315
p1046
aVHBP_EPHYS_TRIGGER:0000005
p1047
aVHBP_EPHYS_TRIGGER:0000004
p1048
aasS'HBP_CELL:0000074'
p1049
(lp1050
(lp1051
VABA_REGION:315
p1052
aVHBP_EPHYS_TRIGGER:0000001
p1053
aa(lp1054
VABA_REGION:315
p1055
aasS'HBP_CELL:0000075'
p1056
(lp1057
(lp1058
VABA_REGION:315
p1059
aVHBP_EPHYS:0000010
p1060
aVHBP_EPHYS_TRIGGER:0000003
p1061
aa(lp1062
VABA_REGION:315
p1063
aasS'HBP_CELL:0000102'
p1064
(lp1065
(lp1066
VABA_REGION:315
p1067
aVHBP_LAYER:0000004
p1068
aVHBP_MORPHOLOGY:0000003
p1069
aa(lp1070
VABA_REGION:315
p1071
aVHBP_LAYER:0000004
p1072
aasS'HBP_CELL:0000103'
p1073
(lp1074
(lp1075
VABA_REGION:315
p1076
aVHBP_LAYER:0000005
p1077
aVHBP_MORPHOLOGY:0000003
p1078
aa(lp1079
VABA_REGION:315
p1080
aVHBP_LAYER:0000005
p1081
aasS'HBP_CELL:0000100'
p1082
(lp1083
(lp1084
VABA_REGION:315
p1085
aVHBP_LAYER:0000006
p1086
aVHBP_MORPHOLOGY:0000006
p1087
aa(lp1088
VABA_REGION:315
p1089
aVHBP_LAYER:0000006
p1090
aasS'HBP_CELL:0000101'
p1091
(lp1092
(lp1093
VABA_REGION:315
p1094
aVHBP_LAYER:0000111
p1095
aVHBP_MORPHOLOGY:0000003
p1096
aa(lp1097
VABA_REGION:315
p1098
aa(lp1099
VABA_REGION:315
p1100
aVHBP_LAYER:0000111
p1101
aasS'HBP_CELL:0000106'
p1102
(lp1103
(lp1104
VABA_REGION:315
p1105
aVHBP_LAYER:0000004
p1106
aVHBP_MORPHOLOGY:0000007
p1107
aa(lp1108
VABA_REGION:315
p1109
aVHBP_LAYER:0000004
p1110
aVncbi:11103
p1111
aasS'HBP_CELL:0000107'
p1112
(lp1113
(lp1114
VABA_REGION:315
p1115
aVHBP_LAYER:0000005
p1116
aVHBP_MORPHOLOGY:0000007
p1117
aa(lp1118
VABA_REGION:315
p1119
aVHBP_LAYER:0000005
p1120
aVncbi:11103
p1121
aasS'HBP_CELL:0000104'
p1122
(lp1123
(lp1124
VABA_REGION:315
p1125
aVHBP_LAYER:0000006
p1126
aVHBP_MORPHOLOGY:0000003
p1127
aa(lp1128
VABA_REGION:315
p1129
aVHBP_LAYER:0000006
p1130
aasS'HBP_CELL:0000105'
p1131
(lp1132
(lp1133
VABA_REGION:315
p1134
aVHBP_LAYER:0000111
p1135
aVHBP_MORPHOLOGY:0000007
p1136
aa(lp1137
VABA_REGION:315
p1138
aVncbi:11103
p1139
aa(lp1140
VABA_REGION:315
p1141
aVHBP_LAYER:0000111
p1142
aVncbi:11103
p1143
aasS'HBP_CELL:0000110'
p1144
(lp1145
(lp1146
VABA_REGION:315
p1147
aVHBP_LAYER:0000004
p1148
aVHBP_MORPHOLOGY:0000005
p1149
aa(lp1150
VABA_REGION:315
p1151
aVHBP_LAYER:0000004
p1152
aas.