(dp0
S'HBP_CELL:0000065'
p1
(lp2
(lp3
asS'HBP_CELL:0000064'
p4
(lp5
(lp6
VHBP_MORPHOLOGY:0000019
p7
aa(lp8
(lp9
VHBP_MORPHOLOGY:0000019
p10
aaa(lp11
(lp12
VHBP_MORPHOLOGY:0000019
p13
aaa(lp14
(lp15
VHBP_MORPHOLOGY:0000019
p16
aaasS'HBP_CELL:0000067'
p17
(lp18
(lp19
S'Size:Large'
p20
aS'Missing:Axon'
p21
aa(lp22
(lp23
S'Size:Large'
p24
aS'Missing:Axon'
p25
aaasS'HBP_CELL:0000066'
p26
(lp27
(lp28
S'Orientation:Descending'
p29
aS'Missing:Axon'
p30
aa(lp31
(lp32
S'Orientation:Descending'
p33
aS'Missing:Axon'
p34
aaasS'HBP_CELL:0000061'
p35
(lp36
(lp37
VHBP_MORPHOLOGY:0000008
p38
aS'Missing:cell like'
p39
aa(lp40
(lp41
VHBP_MORPHOLOGY:0000008
p42
aS'Missing:cell like'
p43
aaasS'HBP_CELL:0000060'
p44
(lp45
(lp46
VHBP_MORPHOLOGY:0000007
p47
aa(lp48
(lp49
VHBP_MORPHOLOGY:0000007
p50
aaa(lp51
(lp52
VHBP_MORPHOLOGY:0000007
p53
aaasS'HBP_CELL:0000063'
p54
(lp55
(lp56
S'Size:Large'
p57
aVHBP_MORPHOLOGY:0000019
p58
aa(lp59
(lp60
S'Size:Large'
p61
aVHBP_MORPHOLOGY:0000019
p62
aaasS'HBP_CELL:0000062'
p63
(lp64
(lp65
S'Size:Small'
p66
aVHBP_MORPHOLOGY:0000019
p67
aa(lp68
(lp69
S'Size:Small'
p70
aVHBP_MORPHOLOGY:0000019
p71
aaasS'HBP_CELL:0000115'
p72
(lp73
(lp74
VHBP_LAYER:0000005
p75
aVHBP_MORPHOLOGY:0000020
p76
aa(lp77
(lp78
VHBP_LAYER:0000005
p79
aVHBP_MORPHOLOGY:0000020
p80
aaasS'HBP_CELL:0000114'
p81
(lp82
(lp83
VHBP_LAYER:0000004
p84
aVHBP_MORPHOLOGY:0000020
p85
aa(lp86
(lp87
VHBP_LAYER:0000004
p88
aVHBP_MORPHOLOGY:0000020
p89
aaasS'HBP_CELL:0000117'
p90
(lp91
(lp92
VHBP_LAYER:0000111
p93
aVHBP_MORPHOLOGY:0000017
p94
aa(lp95
(lp96
VHBP_LAYER:0000111
p97
aVHBP_MORPHOLOGY:0000017
p98
aaa(lp99
(lp100
VHBP_LAYER:0000111
p101
aVHBP_MORPHOLOGY:0000017
p102
aaasS'HBP_CELL:0000116'
p103
(lp104
(lp105
VHBP_LAYER:0000006
p106
aVHBP_MORPHOLOGY:0000020
p107
aa(lp108
(lp109
VHBP_LAYER:0000006
p110
aVHBP_MORPHOLOGY:0000020
p111
aaasS'HBP_CELL:0000069'
p112
(lp113
(lp114
S'Size:Small'
p115
aS'Missing:Axon'
p116
aa(lp117
(lp118
S'Size:Small'
p119
aS'Missing:Axon'
p120
aaa(lp121
(lp122
S'Size:Small'
p123
aS'Missing:Axon'
p124
aaasS'HBP_CELL:0000068'
p125
(lp126
(lp127
VHBP_MORPHOLOGY:0000027
p128
aS'Orientation:Horizontal'
p129
aS'Missing:Axon'
p130
aS'Missing:Axon'
p131
aa(lp132
(lp133
VHBP_MORPHOLOGY:0000027
p134
aS'Orientation:Horizontal'
p135
aS'Missing:Axon'
p136
aS'Missing:Axon'
p137
aaasS'HBP_CELL:0000113'
p138
(lp139
(lp140
VHBP_LAYER:0000111
p141
aVHBP_MORPHOLOGY:0000020
p142
aa(lp143
(lp144
VHBP_LAYER:0000111
p145
aVHBP_MORPHOLOGY:0000020
p146
aaa(lp147
(lp148
VHBP_LAYER:0000111
p149
aVHBP_MORPHOLOGY:0000020
p150
aaasS'HBP_CELL:0000112'
p151
(lp152
(lp153
VHBP_LAYER:0000006
p154
aVHBP_MORPHOLOGY:0000005
p155
aa(lp156
(lp157
VHBP_LAYER:0000006
p158
aVHBP_MORPHOLOGY:0000005
p159
aaasS'HBP_CELL:0000119'
p160
(lp161
(lp162
VHBP_LAYER:0000005
p163
aVHBP_MORPHOLOGY:0000017
p164
aa(lp165
(lp166
VHBP_LAYER:0000005
p167
aVHBP_MORPHOLOGY:0000017
p168
aaasS'HBP_CELL:0000118'
p169
(lp170
(lp171
VHBP_LAYER:0000004
p172
aVHBP_MORPHOLOGY:0000017
p173
aa(lp174
(lp175
VHBP_LAYER:0000004
p176
aVHBP_MORPHOLOGY:0000017
p177
aaasS'HBP_CELL:0000098'
p178
(lp179
(lp180
VHBP_LAYER:0000004
p181
aVHBP_MORPHOLOGY:0000006
p182
aa(lp183
(lp184
VHBP_LAYER:0000004
p185
aVHBP_MORPHOLOGY:0000006
p186
aaasS'HBP_CELL:0000099'
p187
(lp188
(lp189
VHBP_LAYER:0000005
p190
aVHBP_MORPHOLOGY:0000006
p191
aa(lp192
(lp193
VHBP_LAYER:0000005
p194
aVHBP_MORPHOLOGY:0000006
p195
aaasS'HBP_CELL:0000091'
p196
(lp197
(lp198
VHBP_LAYER:0000001
p199
aVHBP_MORPHOLOGY:0000020
p200
aa(lp201
(lp202
VHBP_LAYER:0000001
p203
aVHBP_MORPHOLOGY:0000020
p204
aaasS'HBP_CELL:0000092'
p205
(lp206
(lp207
VHBP_LAYER:0000001
p208
aVHBP_MORPHOLOGY:0000020
p209
aa(lp210
(lp211
VHBP_LAYER:0000001
p212
aVHBP_MORPHOLOGY:0000020
p213
aaasS'HBP_CELL:0000093'
p214
(lp215
(lp216
VHBP_LAYER:0000001
p217
aS'Orientation:Descending'
p218
aS'Missing:Axon'
p219
aa(lp220
(lp221
VHBP_LAYER:0000001
p222
aS'Orientation:Descending'
p223
aS'Missing:Axon'
p224
aaasS'HBP_CELL:0000094'
p225
(lp226
(lp227
VHBP_LAYER:0000001
p228
aS'Orientation:Horizontal'
p229
aVHBP_MORPHOLOGY:0000027
p230
aS'Missing:Axon'
p231
aS'Missing:Axon'
p232
aa(lp233
(lp234
VHBP_LAYER:0000001
p235
aS'Orientation:Horizontal'
p236
aVHBP_MORPHOLOGY:0000027
p237
aS'Missing:Axon'
p238
aS'Missing:Axon'
p239
aaasS'HBP_CELL:0000095'
p240
(lp241
(lp242
VHBP_LAYER:0000001
p243
aS'Size:Large'
p244
aS'Missing:Axon'
p245
aa(lp246
(lp247
VHBP_LAYER:0000001
p248
aS'Size:Large'
p249
aS'Missing:Axon'
p250
aaasS'HBP_CELL:0000096'
p251
(lp252
(lp253
VHBP_LAYER:0000001
p254
aS'Size:Small'
p255
aS'Missing:Axon'
p256
aa(lp257
(lp258
VHBP_LAYER:0000001
p259
aS'Size:Small'
p260
aS'Missing:Axon'
p261
aaasS'HBP_CELL:0000097'
p262
(lp263
(lp264
VHBP_LAYER:0000111
p265
aVHBP_MORPHOLOGY:0000006
p266
aa(lp267
(lp268
VHBP_LAYER:0000111
p269
aVHBP_MORPHOLOGY:0000006
p270
aaa(lp271
(lp272
VHBP_LAYER:0000111
p273
aVHBP_MORPHOLOGY:0000006
p274
aaasS'HBP_CELL:0000010'
p275
(lp276
(lp277
asS'HBP_CELL:0000011'
p278
(lp279
(lp280
VNCBI_GENE:109648
p281
aa(lp282
(lp283
VNCBI_GENE:109648
p284
aaasS'HBP_CELL:0000012'
p285
(lp286
(lp287
VNCBI_GENE:22355
p288
aa(lp289
(lp290
VNCBI_GENE:22355
p291
aaasS'HBP_CELL:0000013'
p292
(lp293
(lp294
VNCBI_GENE:12424
p295
aa(lp296
(lp297
VNCBI_GENE:12424
p298
aaasS'HBP_CELL:0000014'
p299
(lp300
(lp301
VNCBI_GENE:12307
p302
aa(lp303
(lp304
VNCBI_GENE:12307
p305
aaa(lp306
(lp307
VNCBI_GENE:12307
p308
aaasS'HBP_CELL:0000015'
p309
(lp310
(lp311
VNCBI_GENE:20604
p312
aa(lp313
(lp314
VNCBI_GENE:20604
p315
aaa(lp316
(lp317
VNCBI_GENE:20604
p318
aaasS'HBP_CELL:0000016'
p319
(lp320
(lp321
VNCBI_GENE:19293
p322
aa(lp323
(lp324
VNCBI_GENE:19293
p325
aaa(lp326
(lp327
VNCBI_GENE:19293
p328
aaasS'HBP_CELL:0000017'
p329
(lp330
(lp331
VNCBI_GENE:12308
p332
aa(lp333
(lp334
VNCBI_GENE:12308
p335
aaa(lp336
(lp337
VNCBI_GENE:12308
p338
aaasS'HBP_CELL:0000018'
p339
(lp340
(lp341
VHBP_MORPHOLOGY:0000001
p342
aa(lp343
(lp344
VHBP_MORPHOLOGY:0000001
p345
aaasS'HBP_CELL:0000019'
p346
(lp347
(lp348
S'Function:Inhibitory'
p349
aasS'HBP_CELL:0000089'
p350
(lp351
(lp352
VHBP_EPHYS:0000020
p353
aVHBP_EPHYS_TRIGGER:0000001
p354
aa(lp355
(lp356
VHBP_EPHYS:0000020
p357
aVHBP_EPHYS_TRIGGER:0000001
p358
aaasS'HBP_CELL:0000088'
p359
(lp360
(lp361
VHBP_EPHYS:0000020
p362
aS'Missing:Non'
p363
aVHBP_EPHYS_TRIGGER:0000001
p364
aa(lp365
(lp366
VHBP_EPHYS:0000020
p367
aS'Missing:Non'
p368
aVHBP_EPHYS_TRIGGER:0000001
p369
aaasS'HBP_CELL:0000083'
p370
(lp371
(lp372
VHBP_EPHYS_TRIGGER:0000005
p373
aVHBP_EPHYS_TRIGGER:0000006
p374
aa(lp375
(lp376
VHBP_EPHYS_TRIGGER:0000005
p377
aVHBP_EPHYS_TRIGGER:0000006
p378
aaasS'HBP_CELL:0000082'
p379
(lp380
(lp381
VHBP_EPHYS:0000050
p382
aVHBP_EPHYS_TRIGGER:0000001
p383
aa(lp384
(lp385
VHBP_EPHYS:0000050
p386
aVHBP_EPHYS_TRIGGER:0000001
p387
aaasS'HBP_CELL:0000081'
p388
(lp389
(lp390
VHBP_EPHYS:0000050
p391
aS'Missing:Non'
p392
aVHBP_EPHYS_TRIGGER:0000001
p393
aa(lp394
(lp395
VHBP_EPHYS:0000050
p396
aS'Missing:Non'
p397
aVHBP_EPHYS_TRIGGER:0000001
p398
aaasS'HBP_CELL:0000080'
p399
(lp400
(lp401
VHBP_EPHYS:0000050
p402
aVHBP_EPHYS:0000010
p403
aa(lp404
(lp405
VHBP_EPHYS:0000050
p406
aVHBP_EPHYS:0000010
p407
aaasS'HBP_CELL:0000087'
p408
(lp409
(lp410
VHBP_EPHYS:0000020
p411
aVHBP_EPHYS_TRIGGER:0000006
p412
aa(lp413
(lp414
VHBP_EPHYS:0000020
p415
aVHBP_EPHYS_TRIGGER:0000006
p416
aaasS'HBP_CELL:0000086'
p417
(lp418
(lp419
VHBP_EPHYS_TRIGGER:0000005
p420
aVHBP_EPHYS_TRIGGER:0000001
p421
aa(lp422
(lp423
VHBP_EPHYS_TRIGGER:0000005
p424
aVHBP_EPHYS_TRIGGER:0000001
p425
aaasS'HBP_CELL:0000085'
p426
(lp427
(lp428
VHBP_EPHYS_TRIGGER:0000005
p429
aVHBP_EPHYS:0000010
p430
aa(lp431
(lp432
VHBP_EPHYS_TRIGGER:0000005
p433
aVHBP_EPHYS:0000010
p434
aaasS'HBP_CELL:0000084'
p435
(lp436
(lp437
VHBP_EPHYS_TRIGGER:0000005
p438
aS'Missing:Non'
p439
aVHBP_EPHYS_TRIGGER:0000001
p440
aa(lp441
(lp442
VHBP_EPHYS_TRIGGER:0000005
p443
aS'Missing:Non'
p444
aVHBP_EPHYS_TRIGGER:0000001
p445
aaasS'HBP_CELL:0000071'
p446
(lp447
(lp448
VHBP_EPHYS_TRIGGER:0000003
p449
aasS'HBP_CELL:0000003'
p450
(lp451
(lp452
asS'HBP_CELL:0000002'
p453
(lp454
(lp455
VHBP_MORPHOLOGY:0000060
p456
aasS'HBP_CELL:0000001'
p457
(lp458
(lp459
asS'HBP_CELL:0000000'
p460
(lp461
(lp462
asS'HBP_CELL:0000007'
p463
(lp464
(lp465
asS'HBP_CELL:0000006'
p466
(lp467
(lp468
asS'HBP_CELL:0000005'
p469
(lp470
(lp471
asS'HBP_CELL:0000004'
p472
(lp473
(lp474
asS'HBP_CELL:0000009'
p475
(lp476
(lp477
asS'HBP_CELL:0000008'
p478
(lp479
(lp480
S'Function:synaptic'
p481
aasS'HBP_CELL:0000078'
p482
(lp483
(lp484
VHBP_EPHYS:0000020
p485
aVHBP_EPHYS_TRIGGER:0000004
p486
aasS'HBP_CELL:0000079'
p487
(lp488
(lp489
VHBP_EPHYS:0000050
p490
aVHBP_EPHYS_TRIGGER:0000006
p491
aa(lp492
(lp493
VHBP_EPHYS:0000050
p494
aVHBP_EPHYS_TRIGGER:0000006
p495
aaasS'HBP_CELL:0000036'
p496
(lp497
(lp498
VHBP_MORPHOLOGY:0000031
p499
aVHBP_MORPHOLOGY:0000001
p500
aVHBP_LAYER:0000001
p501
aa(lp502
(lp503
VHBP_MORPHOLOGY:0000031
p504
aVHBP_MORPHOLOGY:0000001
p505
aVHBP_LAYER:0000001
p506
aaasS'HBP_CELL:0000037'
p507
(lp508
(lp509
VHBP_MORPHOLOGY:0000014
p510
aVHBP_MORPHOLOGY:0000001
p511
aa(lp512
(lp513
VHBP_MORPHOLOGY:0000014
p514
aVHBP_MORPHOLOGY:0000001
p515
aaasS'HBP_CELL:0000034'
p516
(lp517
(lp518
S'Function:projection'
p519
aasS'HBP_CELL:0000035'
p520
(lp521
(lp522
VHBP_MORPHOLOGY:0000031
p523
aVHBP_MORPHOLOGY:0000001
p524
aVHBP_LAYER:0000004
p525
aa(lp526
(lp527
VHBP_MORPHOLOGY:0000031
p528
aVHBP_MORPHOLOGY:0000001
p529
aVHBP_LAYER:0000004
p530
aaasS'HBP_CELL:0000032'
p531
(lp532
(lp533
S'Size:Narrow'
p534
aVHBP_MORPHOLOGY:0000001
p535
aVABA_REGION:549
p536
aa(lp537
(lp538
S'Size:Narrow'
p539
aVHBP_MORPHOLOGY:0000001
p540
aVABA_REGION:549
p541
aaasS'HBP_CELL:0000033'
p542
(lp543
(lp544
asS'HBP_CELL:0000030'
p545
(lp546
(lp547
S'Orientation:Horizontal'
p548
aVHBP_MORPHOLOGY:0000027
p549
aVHBP_MORPHOLOGY:0000001
p550
aa(lp551
(lp552
S'Orientation:Horizontal'
p553
aVHBP_MORPHOLOGY:0000027
p554
aVHBP_MORPHOLOGY:0000001
p555
aaasS'HBP_CELL:0000031'
p556
(lp557
(lp558
VHBP_MORPHOLOGY:0000006
p559
aVHBP_MORPHOLOGY:0000001
p560
aa(lp561
(lp562
VHBP_MORPHOLOGY:0000006
p563
aVHBP_MORPHOLOGY:0000001
p564
aaasS'HBP_CELL:0000038'
p565
(lp566
(lp567
VHBP_MORPHOLOGY:0000015
p568
aVHBP_MORPHOLOGY:0000001
p569
aa(lp570
(lp571
VHBP_MORPHOLOGY:0000015
p572
aVHBP_MORPHOLOGY:0000001
p573
aaasS'HBP_CELL:0000039'
p574
(lp575
(lp576
VHBP_MORPHOLOGY:0000009
p577
aVHBP_MORPHOLOGY:0000014
p578
aVHBP_MORPHOLOGY:0000001
p579
aa(lp580
(lp581
VHBP_MORPHOLOGY:0000009
p582
aVHBP_MORPHOLOGY:0000014
p583
aVHBP_MORPHOLOGY:0000001
p584
aaasS'HBP_CELL:0000070'
p585
(lp586
(lp587
VHBP_EPHYS_TRIGGER:0000004
p588
aasS'HBP_CELL:0000029'
p589
(lp590
(lp591
VHBP_LAYER:0000006
p592
aVHBP_MORPHOLOGY:0000001
p593
aa(lp594
(lp595
VHBP_LAYER:0000006
p596
aVHBP_MORPHOLOGY:0000001
p597
aaasS'HBP_CELL:0000028'
p598
(lp599
(lp600
VHBP_LAYER:0000111
p601
aVHBP_MORPHOLOGY:0000001
p602
aa(lp603
(lp604
VHBP_LAYER:0000111
p605
aVHBP_MORPHOLOGY:0000001
p606
aaa(lp607
(lp608
VHBP_LAYER:0000111
p609
aVHBP_MORPHOLOGY:0000001
p610
aaasS'HBP_CELL:0000021'
p611
(lp612
(lp613
VHBP_NEUROTRANSMITTER:0000004
p614
aasS'HBP_CELL:0000020'
p615
(lp616
(lp617
S'Function:Excitatory'
p618
aasS'HBP_CELL:0000023'
p619
(lp620
(lp621
VHBP_MORPHOLOGY:0000031
p622
aVHBP_MORPHOLOGY:0000001
p623
aa(lp624
(lp625
VHBP_MORPHOLOGY:0000031
p626
aVHBP_MORPHOLOGY:0000001
p627
aaasS'HBP_CELL:0000022'
p628
(lp629
(lp630
VHBP_NEUROTRANSMITTER:0000003
p631
aasS'HBP_CELL:0000025'
p632
(lp633
(lp634
VHBP_MORPHOLOGY:0000011
p635
aVHBP_MORPHOLOGY:0000013
p636
aa(lp637
(lp638
VHBP_MORPHOLOGY:0000011
p639
aVHBP_MORPHOLOGY:0000013
p640
aaa(lp641
(lp642
VHBP_MORPHOLOGY:0000011
p643
aVHBP_MORPHOLOGY:0000013
p644
aaasS'HBP_CELL:0000024'
p645
(lp646
(lp647
VHBP_MORPHOLOGY:0000074
p648
aVHBP_MORPHOLOGY:0000001
p649
aa(lp650
(lp651
VHBP_MORPHOLOGY:0000074
p652
aVHBP_MORPHOLOGY:0000001
p653
aaasS'HBP_CELL:0000027'
p654
(lp655
(lp656
VHBP_MORPHOLOGY:0000001
p657
aa(lp658
(lp659
VHBP_MORPHOLOGY:0000001
p660
aaa(lp661
(lp662
VHBP_MORPHOLOGY:0000001
p663
aaasS'HBP_CELL:0000026'
p664
(lp665
(lp666
VHBP_LAYER:0000004
p667
aVHBP_MORPHOLOGY:0000011
p668
aVHBP_MORPHOLOGY:0000013
p669
aa(lp670
(lp671
VHBP_LAYER:0000004
p672
aVHBP_MORPHOLOGY:0000011
p673
aVHBP_MORPHOLOGY:0000013
p674
aaasS'HBP_CELL:0000124'
p675
(lp676
(lp677
VHBP_LAYER:0000006
p678
aS'Size:Large'
p679
aVHBP_MORPHOLOGY:0000019
p680
aa(lp681
(lp682
VHBP_LAYER:0000006
p683
aS'Size:Large'
p684
aVHBP_MORPHOLOGY:0000019
p685
aaasS'HBP_CELL:0000125'
p686
(lp687
(lp688
VHBP_LAYER:0000111
p689
aS'Missing:Nest'
p690
aVHBP_MORPHOLOGY:0000019
p691
aa(lp692
(lp693
VHBP_LAYER:0000111
p694
aS'Missing:Nest'
p695
aVHBP_MORPHOLOGY:0000019
p696
aaa(lp697
(lp698
VHBP_LAYER:0000111
p699
aS'Missing:Nest'
p700
aVHBP_MORPHOLOGY:0000019
p701
aaasS'HBP_CELL:0000126'
p702
(lp703
(lp704
VHBP_LAYER:0000111
p705
aS'Size:Small'
p706
aVHBP_MORPHOLOGY:0000019
p707
aa(lp708
(lp709
VHBP_LAYER:0000111
p710
aS'Size:Small'
p711
aVHBP_MORPHOLOGY:0000019
p712
aaa(lp713
(lp714
VHBP_LAYER:0000111
p715
aS'Size:Small'
p716
aVHBP_MORPHOLOGY:0000019
p717
aaasS'HBP_CELL:0000127'
p718
(lp719
(lp720
VHBP_LAYER:0000004
p721
aS'Size:Small'
p722
aVHBP_MORPHOLOGY:0000019
p723
aa(lp724
(lp725
VHBP_LAYER:0000004
p726
aS'Size:Small'
p727
aVHBP_MORPHOLOGY:0000019
p728
aaasS'HBP_CELL:0000120'
p729
(lp730
(lp731
VHBP_LAYER:0000006
p732
aVHBP_MORPHOLOGY:0000017
p733
aa(lp734
(lp735
VHBP_LAYER:0000006
p736
aVHBP_MORPHOLOGY:0000017
p737
aaasS'HBP_CELL:0000121'
p738
(lp739
(lp740
VHBP_LAYER:0000111
p741
aS'Size:Large'
p742
aVHBP_MORPHOLOGY:0000019
p743
aa(lp744
(lp745
VHBP_LAYER:0000111
p746
aS'Size:Large'
p747
aVHBP_MORPHOLOGY:0000019
p748
aaa(lp749
(lp750
VHBP_LAYER:0000111
p751
aS'Size:Large'
p752
aVHBP_MORPHOLOGY:0000019
p753
aaasS'HBP_CELL:0000122'
p754
(lp755
(lp756
VHBP_LAYER:0000004
p757
aS'Size:Large'
p758
aVHBP_MORPHOLOGY:0000019
p759
aa(lp760
(lp761
VHBP_LAYER:0000004
p762
aS'Size:Large'
p763
aVHBP_MORPHOLOGY:0000019
p764
aaasS'HBP_CELL:0000123'
p765
(lp766
(lp767
VHBP_LAYER:0000005
p768
aS'Size:Large'
p769
aVHBP_MORPHOLOGY:0000019
p770
aa(lp771
(lp772
VHBP_LAYER:0000005
p773
aS'Size:Large'
p774
aVHBP_MORPHOLOGY:0000019
p775
aaasS'HBP_CELL:0000128'
p776
(lp777
(lp778
VHBP_LAYER:0000005
p779
aS'Size:Small'
p780
aVHBP_MORPHOLOGY:0000019
p781
aa(lp782
(lp783
VHBP_LAYER:0000005
p784
aS'Size:Small'
p785
aVHBP_MORPHOLOGY:0000019
p786
aaasS'HBP_CELL:0000129'
p787
(lp788
(lp789
VHBP_LAYER:0000006
p790
aS'Size:Small'
p791
aVHBP_MORPHOLOGY:0000019
p792
aa(lp793
(lp794
VHBP_LAYER:0000006
p795
aS'Size:Small'
p796
aVHBP_MORPHOLOGY:0000019
p797
aaasS'HBP_CELL:0000058'
p798
(lp799
(lp800
VHBP_MORPHOLOGY:0000020
p801
aa(lp802
(lp803
VHBP_MORPHOLOGY:0000020
p804
aaasS'HBP_CELL:0000059'
p805
(lp806
(lp807
VHBP_MORPHOLOGY:0000005
p808
aa(lp809
(lp810
VHBP_MORPHOLOGY:0000005
p811
aaasS'HBP_CELL:0000054'
p812
(lp813
(lp814
VHBP_MORPHOLOGY:0000003
p815
aa(lp816
(lp817
VHBP_MORPHOLOGY:0000003
p818
aaasS'HBP_CELL:0000055'
p819
(lp820
(lp821
VHBP_MORPHOLOGY:0000017
p822
aa(lp823
(lp824
VHBP_MORPHOLOGY:0000017
p825
aaasS'HBP_CELL:0000056'
p826
(lp827
(lp828
VHBP_MORPHOLOGY:0000020
p829
aa(lp830
(lp831
VHBP_MORPHOLOGY:0000020
p832
aaasS'HBP_CELL:0000057'
p833
(lp834
(lp835
VHBP_MORPHOLOGY:0000020
p836
aa(lp837
(lp838
VHBP_MORPHOLOGY:0000020
p839
aaasS'HBP_CELL:0000050'
p840
(lp841
(lp842
VHBP_LAYER:0000005
p843
aVHBP_MORPHOLOGY:0000015
p844
aVHBP_MORPHOLOGY:0000001
p845
aa(lp846
(lp847
VHBP_LAYER:0000005
p848
aVHBP_MORPHOLOGY:0000015
p849
aVHBP_MORPHOLOGY:0000001
p850
aaasS'HBP_CELL:0000051'
p851
(lp852
(lp853
VHBP_LAYER:0000006
p854
aVHBP_MORPHOLOGY:0000031
p855
aVHBP_MORPHOLOGY:0000001
p856
aVHBP_LAYER:0000001
p857
aVUNKN_REGION:2906
p858
aa(lp859
(lp860
VHBP_LAYER:0000006
p861
aVHBP_MORPHOLOGY:0000031
p862
aVHBP_MORPHOLOGY:0000001
p863
aVHBP_LAYER:0000001
p864
aVUNKN_REGION:2906
p865
aaasS'HBP_CELL:0000052'
p866
(lp867
(lp868
VHBP_MORPHOLOGY:0000019
p869
aa(lp870
(lp871
VHBP_MORPHOLOGY:0000019
p872
aaasS'HBP_CELL:0000053'
p873
(lp874
(lp875
VHBP_MORPHOLOGY:0000006
p876
aa(lp877
(lp878
VHBP_MORPHOLOGY:0000006
p879
aaasS'HBP_CELL:0000133'
p880
(lp881
(lp882
VHBP_NEUROTRANSMITTER:0000003
p883
aasS'HBP_CELL:0000132'
p884
(lp885
(lp886
VHBP_LAYER:0000006
p887
aS'Missing:Nest'
p888
aS'Missing:Nest'
p889
aVHBP_MORPHOLOGY:0000019
p890
aa(lp891
(lp892
VHBP_LAYER:0000006
p893
aS'Missing:Nest'
p894
aS'Missing:Nest'
p895
aVHBP_MORPHOLOGY:0000019
p896
aaasS'HBP_CELL:0000131'
p897
(lp898
(lp899
VHBP_LAYER:0000005
p900
aS'Missing:Nest'
p901
aS'Missing:Nest'
p902
aVHBP_MORPHOLOGY:0000019
p903
aa(lp904
(lp905
VHBP_LAYER:0000005
p906
aS'Missing:Nest'
p907
aS'Missing:Nest'
p908
aVHBP_MORPHOLOGY:0000019
p909
aaasS'HBP_CELL:0000130'
p910
(lp911
(lp912
VHBP_LAYER:0000004
p913
aS'Missing:Nest'
p914
aS'Missing:Nest'
p915
aVHBP_MORPHOLOGY:0000019
p916
aa(lp917
(lp918
VHBP_LAYER:0000004
p919
aS'Missing:Nest'
p920
aS'Missing:Nest'
p921
aVHBP_MORPHOLOGY:0000019
p922
aaasS'HBP_CELL:0000111'
p923
(lp924
(lp925
VHBP_LAYER:0000005
p926
aVHBP_MORPHOLOGY:0000005
p927
aa(lp928
(lp929
VHBP_LAYER:0000005
p930
aVHBP_MORPHOLOGY:0000005
p931
aaasS'HBP_CELL:0000049'
p932
(lp933
(lp934
VHBP_LAYER:0000005
p935
aVHBP_MORPHOLOGY:0000074
p936
aVHBP_MORPHOLOGY:0000001
p937
aa(lp938
(lp939
VHBP_LAYER:0000005
p940
aVHBP_MORPHOLOGY:0000074
p941
aVHBP_MORPHOLOGY:0000001
p942
aaasS'HBP_CELL:0000048'
p943
(lp944
(lp945
VHBP_LAYER:0000005
p946
aVHBP_MORPHOLOGY:0000009
p947
aVHBP_MORPHOLOGY:0000014
p948
aVHBP_MORPHOLOGY:0000001
p949
aa(lp950
(lp951
VHBP_LAYER:0000005
p952
aVHBP_MORPHOLOGY:0000009
p953
aVHBP_MORPHOLOGY:0000014
p954
aVHBP_MORPHOLOGY:0000001
p955
aaasS'HBP_CELL:0000047'
p956
(lp957
(lp958
VHBP_LAYER:0000006
p959
aVHBP_MORPHOLOGY:0000006
p960
aVHBP_MORPHOLOGY:0000001
p961
aa(lp962
(lp963
VHBP_LAYER:0000006
p964
aVHBP_MORPHOLOGY:0000006
p965
aVHBP_MORPHOLOGY:0000001
p966
aaasS'HBP_CELL:0000046'
p967
(lp968
(lp969
VHBP_LAYER:0000006
p970
aS'Orientation:Inverted'
p971
aVHBP_MORPHOLOGY:0000001
p972
aa(lp973
(lp974
VHBP_LAYER:0000006
p975
aS'Orientation:Inverted'
p976
aVHBP_MORPHOLOGY:0000001
p977
aaasS'HBP_CELL:0000045'
p978
(lp979
(lp980
VHBP_LAYER:0000006
p981
aVHBP_MORPHOLOGY:0000074
p982
aVHBP_MORPHOLOGY:0000001
p983
aa(lp984
(lp985
VHBP_LAYER:0000006
p986
aVHBP_MORPHOLOGY:0000074
p987
aVHBP_MORPHOLOGY:0000001
p988
aaasS'HBP_CELL:0000044'
p989
(lp990
(lp991
VHBP_LAYER:0000005
p992
aS'Missing:Late bifurcating'
p993
aS'Missing:Late bifurcating'
p994
aVHBP_MORPHOLOGY:0000014
p995
aVHBP_MORPHOLOGY:0000001
p996
aa(lp997
(lp998
VHBP_LAYER:0000005
p999
aS'Missing:Late bifurcating'
p1000
aS'Missing:Late bifurcating'
p1001
aVHBP_MORPHOLOGY:0000014
p1002
aVHBP_MORPHOLOGY:0000001
p1003
aaasS'HBP_CELL:0000043'
p1004
(lp1005
(lp1006
VHBP_LAYER:0000006
p1007
aVHBP_MORPHOLOGY:0000031
p1008
aVHBP_MORPHOLOGY:0000001
p1009
aVHBP_LAYER:0000004
p1010
aVUNKN_REGION:4078
p1011
aa(lp1012
(lp1013
VHBP_LAYER:0000006
p1014
aVHBP_MORPHOLOGY:0000031
p1015
aVHBP_MORPHOLOGY:0000001
p1016
aVHBP_LAYER:0000004
p1017
aVUNKN_REGION:4078
p1018
aaasS'HBP_CELL:0000042'
p1019
(lp1020
(lp1021
S'Orientation:Inverted'
p1022
aVHBP_MORPHOLOGY:0000001
p1023
aa(lp1024
(lp1025
S'Orientation:Inverted'
p1026
aVHBP_MORPHOLOGY:0000001
p1027
aaa(lp1028
(lp1029
S'Orientation:Inverted'
p1030
aVHBP_MORPHOLOGY:0000001
p1031
aaasS'HBP_CELL:0000041'
p1032
(lp1033
(lp1034
VHBP_MORPHOLOGY:0000074
p1035
aVHBP_MORPHOLOGY:0000016
p1036
aVHBP_MORPHOLOGY:0000001
p1037
aa(lp1038
(lp1039
VHBP_MORPHOLOGY:0000074
p1040
aVHBP_MORPHOLOGY:0000016
p1041
aVHBP_MORPHOLOGY:0000001
p1042
aaasS'HBP_CELL:0000040'
p1043
(lp1044
(lp1045
VHBP_MORPHOLOGY:0000014
p1046
aVHBP_MORPHOLOGY:0000001
p1047
aa(lp1048
(lp1049
VHBP_MORPHOLOGY:0000014
p1050
aVHBP_MORPHOLOGY:0000001
p1051
aaasS'HBP_CELL:0000072'
p1052
(lp1053
(lp1054
VHBP_EPHYS_TRIGGER:0000006
p1055
aa(lp1056
(lp1057
VHBP_EPHYS_TRIGGER:0000006
p1058
aaasS'HBP_CELL:0000073'
p1059
(lp1060
(lp1061
VHBP_EPHYS_TRIGGER:0000001
p1062
aa(lp1063
(lp1064
VHBP_EPHYS_TRIGGER:0000001
p1065
aaasS'HBP_CELL:0000108'
p1066
(lp1067
(lp1068
VHBP_LAYER:0000006
p1069
aVHBP_MORPHOLOGY:0000007
p1070
aa(lp1071
(lp1072
VHBP_LAYER:0000006
p1073
aVHBP_MORPHOLOGY:0000007
p1074
aaasS'HBP_CELL:0000109'
p1075
(lp1076
(lp1077
VHBP_LAYER:0000111
p1078
aVHBP_MORPHOLOGY:0000005
p1079
aa(lp1080
(lp1081
VHBP_LAYER:0000111
p1082
aVHBP_MORPHOLOGY:0000005
p1083
aaa(lp1084
(lp1085
VHBP_LAYER:0000111
p1086
aVHBP_MORPHOLOGY:0000005
p1087
aaasS'HBP_CELL:0000076'
p1088
(lp1089
(lp1090
VHBP_EPHYS:0000050
p1091
aVHBP_EPHYS_TRIGGER:0000004
p1092
aasS'HBP_CELL:0000077'
p1093
(lp1094
(lp1095
VHBP_EPHYS_TRIGGER:0000005
p1096
aVHBP_EPHYS_TRIGGER:0000004
p1097
aasS'HBP_CELL:0000074'
p1098
(lp1099
(lp1100
VHBP_EPHYS_TRIGGER:0000001
p1101
aa(lp1102
(lp1103
VHBP_EPHYS_TRIGGER:0000001
p1104
aaasS'HBP_CELL:0000075'
p1105
(lp1106
(lp1107
VHBP_EPHYS:0000010
p1108
aVHBP_EPHYS_TRIGGER:0000003
p1109
aa(lp1110
(lp1111
VHBP_EPHYS:0000010
p1112
aVHBP_EPHYS_TRIGGER:0000003
p1113
aaasS'HBP_CELL:0000102'
p1114
(lp1115
(lp1116
VHBP_LAYER:0000004
p1117
aVHBP_MORPHOLOGY:0000003
p1118
aa(lp1119
(lp1120
VHBP_LAYER:0000004
p1121
aVHBP_MORPHOLOGY:0000003
p1122
aaasS'HBP_CELL:0000103'
p1123
(lp1124
(lp1125
VHBP_LAYER:0000005
p1126
aVHBP_MORPHOLOGY:0000003
p1127
aa(lp1128
(lp1129
VHBP_LAYER:0000005
p1130
aVHBP_MORPHOLOGY:0000003
p1131
aaasS'HBP_CELL:0000100'
p1132
(lp1133
(lp1134
VHBP_LAYER:0000006
p1135
aVHBP_MORPHOLOGY:0000006
p1136
aa(lp1137
(lp1138
VHBP_LAYER:0000006
p1139
aVHBP_MORPHOLOGY:0000006
p1140
aaasS'HBP_CELL:0000101'
p1141
(lp1142
(lp1143
VHBP_LAYER:0000111
p1144
aVHBP_MORPHOLOGY:0000003
p1145
aa(lp1146
(lp1147
VHBP_LAYER:0000111
p1148
aVHBP_MORPHOLOGY:0000003
p1149
aaa(lp1150
(lp1151
VHBP_LAYER:0000111
p1152
aVHBP_MORPHOLOGY:0000003
p1153
aaasS'HBP_CELL:0000106'
p1154
(lp1155
(lp1156
VHBP_LAYER:0000004
p1157
aVHBP_MORPHOLOGY:0000007
p1158
aa(lp1159
(lp1160
VHBP_LAYER:0000004
p1161
aVHBP_MORPHOLOGY:0000007
p1162
aaasS'HBP_CELL:0000107'
p1163
(lp1164
(lp1165
VHBP_LAYER:0000005
p1166
aVHBP_MORPHOLOGY:0000007
p1167
aa(lp1168
(lp1169
VHBP_LAYER:0000005
p1170
aVHBP_MORPHOLOGY:0000007
p1171
aaasS'HBP_CELL:0000104'
p1172
(lp1173
(lp1174
VHBP_LAYER:0000006
p1175
aVHBP_MORPHOLOGY:0000003
p1176
aa(lp1177
(lp1178
VHBP_LAYER:0000006
p1179
aVHBP_MORPHOLOGY:0000003
p1180
aaasS'HBP_CELL:0000105'
p1181
(lp1182
(lp1183
VHBP_LAYER:0000111
p1184
aVHBP_MORPHOLOGY:0000007
p1185
aa(lp1186
(lp1187
VHBP_LAYER:0000111
p1188
aVHBP_MORPHOLOGY:0000007
p1189
aaa(lp1190
(lp1191
VHBP_LAYER:0000111
p1192
aVHBP_MORPHOLOGY:0000007
p1193
aaasS'HBP_CELL:0000110'
p1194
(lp1195
(lp1196
VHBP_LAYER:0000004
p1197
aVHBP_MORPHOLOGY:0000005
p1198
aa(lp1199
(lp1200
VHBP_LAYER:0000004
p1201
aVHBP_MORPHOLOGY:0000005
p1202
aaas.