(dp0
S'nlx_147720'
p1
(lp2
(lp3
S'Function:neurosecretory'
p4
aasS'nlx_147721'
p5
(lp6
(lp7
VUNKN_REGION:46
p8
aS'Function:neurosecretory'
p9
aasS'nlx_147722'
p10
(lp11
(lp12
S'Function:neurosecretory'
p13
aasS'nlx_cell_1006021'
p14
(lp15
(lp16
VUNKN_REGION:4645
p17
aVUNKN_REGION:240
p18
aa(lp19
(lp20
VUNKN_REGION:4645
p21
aVUNKN_REGION:240
p22
aaa(lp23
(lp24
VUNKN_REGION:4645
p25
aVUNKN_REGION:240
p26
aaasS'nlx_cell_100311'
p27
(lp28
(lp29
VABA_REGION:773
p30
aS'Function:motor'
p31
aa(lp32
(lp33
VABA_REGION:773
p34
aS'Function:motor'
p35
aaa(lp36
(lp37
VABA_REGION:773
p38
aS'Function:motor'
p39
aaa(lp40
(lp41
VABA_REGION:773
p42
aS'Function:motor'
p43
aaa(lp44
(lp45
VABA_REGION:773
p46
aS'Function:motor'
p47
aaa(lp48
(lp49
VABA_REGION:773
p50
aS'Function:motor'
p51
aaasS'nlx_146711'
p52
(lp53
(lp54
asS'nlx_cell_1006029'
p55
(lp56
(lp57
VABA_REGION:375
p58
aVABA_REGION:382
p59
aS'Missing:IS-II'
p60
aa(lp61
(lp62
VABA_REGION:375
p63
aVABA_REGION:382
p64
aS'Missing:IS-II'
p65
aaasS'nlx_148243'
p66
(lp67
(lp68
S'Orientation:Horizontal'
p69
aVHBP_MORPHOLOGY:0000027
p70
aS'Missing:fiber system'
p71
aS'Missing:fiber system'
p72
aasS'nlx_cell_091210'
p73
(lp74
(lp75
VABA_REGION:375
p76
aVABA_REGION:463
p77
aS'Missing:IS-I'
p78
aa(lp79
(lp80
VABA_REGION:375
p81
aVABA_REGION:463
p82
aS'Missing:IS-I'
p83
aaasS'nlx_148704'
p84
(lp85
(lp86
asS'BAMSC1020'
p87
(lp88
(lp89
VUNKN_REGION:575
p90
aS'Missing:type 6'
p91
aVHBP_MORPHOLOGY:0000047
p92
aVHBP_MORPHOLOGY:0000006
p93
aa(lp94
(lp95
VUNKN_REGION:575
p96
aS'Missing:type 6'
p97
aVHBP_MORPHOLOGY:0000047
p98
aVHBP_MORPHOLOGY:0000006
p99
aaasS'BAMSC1021'
p100
(lp101
(lp102
VUNKN_REGION:575
p103
aS'Missing:type 7'
p104
aVHBP_MORPHOLOGY:0000047
p105
aVHBP_MORPHOLOGY:0000006
p106
aa(lp107
(lp108
VUNKN_REGION:575
p109
aS'Missing:type 7'
p110
aVHBP_MORPHOLOGY:0000047
p111
aVHBP_MORPHOLOGY:0000006
p112
aaasS'nlx_cell_091211'
p113
(lp114
(lp115
VABA_REGION:375
p116
aVABA_REGION:463
p117
aS'Missing:IS-II'
p118
aa(lp119
(lp120
VABA_REGION:375
p121
aVABA_REGION:463
p122
aS'Missing:IS-II'
p123
aaasS'nlx_cell_20090313'
p124
(lp125
(lp126
VUNKN_REGION:2
p127
aVHBP_MORPHOLOGY:0000058
p128
aVUNKN_REGION:56
p129
aa(lp130
(lp131
VUNKN_REGION:2
p132
aVHBP_MORPHOLOGY:0000058
p133
aVUNKN_REGION:56
p134
aaa(lp135
(lp136
VUNKN_REGION:2
p137
aVHBP_MORPHOLOGY:0000058
p138
aVUNKN_REGION:56
p139
aaasS'nlx_147928'
p140
(lp141
(lp142
asS'nlx_cell_20090311'
p143
(lp144
(lp145
VABA_REGION:375
p146
aVUNKN_REGION:7284
p147
aVHBP_MORPHOLOGY:0000001
p148
aa(lp149
(lp150
VABA_REGION:375
p151
aVUNKN_REGION:7284
p152
aVHBP_MORPHOLOGY:0000001
p153
aaasS'nlx_147926'
p154
(lp155
(lp156
asS'nlx_147927'
p157
(lp158
(lp159
asS'nlx_147924'
p160
(lp161
(lp162
S'Function:neurosecretory'
p163
aa(lp164
(lp165
S'Function:neurosecretory'
p166
aaasS'nlx_147925'
p167
(lp168
(lp169
asS'nlx_152142'
p170
(lp171
(lp172
VUNKN_REGION:575
p173
aS'Missing:thin dendrite'
p174
aS'Orientation:horizontal'
p175
aVHBP_MORPHOLOGY:0000027
p176
aasS'nlx_152143'
p177
(lp178
(lp179
VUNKN_REGION:575
p180
aVUNKN_REGION:575
p181
aS'Size:narrow'
p182
aS'Missing:-field'
p183
aS'Function:AII'
p184
aVHBP_MORPHOLOGY:0000044
p185
aasS'nlx_147850'
p186
(lp187
(lp188
VHBP_MORPHOLOGY:0000006
p189
aS'Missing:dendrite'
p190
aasS'nlx_147851'
p191
(lp192
(lp193
a(lp194
(lp195
aasS'nlx_143940'
p196
(lp197
(lp198
VABA_REGION:315
p199
aS'Function:primary'
p200
aS'Function:visual'
p201
aVHBP_LAYER:0000005
p202
aVUNKN_REGION:61
p203
aasS'nlx_416'
p204
(lp205
(lp206
VABA_REGION:1097
p207
aVNCBI_GENE:18429
p208
aS'Function:neuroendocrine'
p209
aVHBP_MORPHOLOGY:0000062
p210
aasS'nlx_147858'
p211
(lp212
(lp213
VUNKN_REGION:7
p214
aS'Missing:midline'
p215
aasS'nlx_147420'
p216
(lp217
(lp218
a(lp219
(lp220
aasS'nlx_cell_1005001'
p221
(lp222
(lp223
VABA_REGION:549
p224
aVUNKN_REGION:14
p225
aS'Missing:)'
p226
aS'Function:principal'
p227
aasS'nlx_cell_20090402'
p228
(lp229
(lp230
VABA_REGION:880
p231
aS'Size:small'
p232
aa(lp233
(lp234
VABA_REGION:880
p235
aS'Size:small'
p236
aaasS'nlx_cell_20090403'
p237
(lp238
(lp239
VABA_REGION:880
p240
aS'Size:medium'
p241
aa(lp242
(lp243
VABA_REGION:880
p244
aS'Size:medium'
p245
aaasS'nlx_cell_20090401'
p246
(lp247
(lp248
VABA_REGION:507
p249
aS'Missing:(accessory)'
p250
aVHBP_MORPHOLOGY:0000026
p251
aa(lp252
(lp253
VABA_REGION:507
p254
aS'Missing:(accessory)'
p255
aVHBP_MORPHOLOGY:0000026
p256
aaa(lp257
(lp258
VABA_REGION:507
p259
aS'Missing:(accessory)'
p260
aVHBP_MORPHOLOGY:0000026
p261
aaasS'nlx_cell_1003113'
p262
(lp263
(lp264
VHBP_EPHYS:0000040
p265
aa(lp266
(lp267
VHBP_EPHYS:0000040
p268
aaa(lp269
(lp270
VHBP_EPHYS:0000040
p271
aaasS'nifext_134'
p272
(lp273
(lp274
VABA_REGION:315
p275
aVHBP_MORPHOLOGY:0000038
p276
aa(lp277
(lp278
VABA_REGION:315
p279
aVHBP_MORPHOLOGY:0000038
p280
aaa(lp281
(lp282
VABA_REGION:315
p283
aVHBP_MORPHOLOGY:0000038
p284
aaasS'nlx_148216'
p285
(lp286
(lp287
a(lp288
(lp289
aasS'nifext_102'
p290
(lp291
(lp292
VABA_REGION:85
p293
aa(lp294
(lp295
VABA_REGION:85
p296
aaasS'nifext_100'
p297
(lp298
(lp299
VABA_REGION:237
p300
aS'Missing:nucleus'
p301
aS'Function:principal'
p302
aasS'nifext_101'
p303
(lp304
(lp305
VABA_REGION:237
p306
aS'Missing:nucleus'
p307
aVHBP_EPHYS:0000040
p308
aa(lp309
(lp310
VABA_REGION:237
p311
aS'Missing:nucleus'
p312
aVHBP_EPHYS:0000040
p313
aaasS'nifext_106'
p314
(lp315
(lp316
VUNKN_REGION:4645
p317
aVUNKN_REGION:240
p318
aS'Function:motor'
p319
aa(lp320
(lp321
VUNKN_REGION:4645
p322
aVUNKN_REGION:240
p323
aS'Function:motor'
p324
aaasS'nifext_40'
p325
(lp326
(lp327
VUNKN_REGION:575
p328
aS'Orientation:horizontal'
p329
aVHBP_MORPHOLOGY:0000027
p330
aa(lp331
(lp332
VUNKN_REGION:575
p333
aS'Orientation:horizontal'
p334
aVHBP_MORPHOLOGY:0000027
p335
aaasS'nlx_158403'
p336
(lp337
(lp338
VHBP_MORPHOLOGY:0000044
p339
aa(lp340
(lp341
VHBP_MORPHOLOGY:0000044
p342
aaasS'nlx_156753'
p343
(lp344
(lp345
VABA_REGION:315
p346
aVUNKN_REGION:34
p347
aVUNKN_REGION:7263
p348
aS'Missing:area'
p349
aVHBP_LAYER:0000005
p350
aVNCBI_GENE:12307
p351
aa(lp352
(lp353
VABA_REGION:315
p354
aVUNKN_REGION:34
p355
aVUNKN_REGION:7263
p356
aS'Missing:area'
p357
aVHBP_LAYER:0000005
p358
aVNCBI_GENE:12307
p359
aaa(lp360
(lp361
VABA_REGION:315
p362
aVUNKN_REGION:34
p363
aVUNKN_REGION:7263
p364
aS'Missing:area'
p365
aVHBP_LAYER:0000005
p366
aVNCBI_GENE:12307
p367
aaa(lp368
(lp369
VABA_REGION:315
p370
aVUNKN_REGION:34
p371
aVUNKN_REGION:7263
p372
aS'Missing:area'
p373
aVHBP_LAYER:0000005
p374
aVNCBI_GENE:12307
p375
aaasS'nlx_156750'
p376
(lp377
(lp378
VABA_REGION:315
p379
aVUNKN_REGION:34
p380
aVUNKN_REGION:7263
p381
aS'Missing:area'
p382
aVHBP_LAYER:0000004
p383
aVNCBI_GENE:12307
p384
aa(lp385
(lp386
VABA_REGION:315
p387
aVUNKN_REGION:34
p388
aVUNKN_REGION:7263
p389
aS'Missing:area'
p390
aVHBP_LAYER:0000004
p391
aVNCBI_GENE:12307
p392
aaa(lp393
(lp394
VABA_REGION:315
p395
aVUNKN_REGION:34
p396
aVUNKN_REGION:7263
p397
aS'Missing:area'
p398
aVHBP_LAYER:0000004
p399
aVNCBI_GENE:12307
p400
aaa(lp401
(lp402
VABA_REGION:315
p403
aVUNKN_REGION:34
p404
aVUNKN_REGION:7263
p405
aS'Missing:area'
p406
aVHBP_LAYER:0000004
p407
aVNCBI_GENE:12307
p408
aaasS'nlx_156754'
p409
(lp410
(lp411
VABA_REGION:315
p412
aVUNKN_REGION:34
p413
aVUNKN_REGION:7263
p414
aS'Missing:area'
p415
aVHBP_LAYER:0000006
p416
aVNCBI_GENE:12307
p417
aa(lp418
(lp419
VABA_REGION:315
p420
aVUNKN_REGION:34
p421
aVUNKN_REGION:7263
p422
aS'Missing:area'
p423
aVHBP_LAYER:0000006
p424
aVNCBI_GENE:12307
p425
aaa(lp426
(lp427
VABA_REGION:315
p428
aVUNKN_REGION:34
p429
aVUNKN_REGION:7263
p430
aS'Missing:area'
p431
aVHBP_LAYER:0000006
p432
aVNCBI_GENE:12307
p433
aaa(lp434
(lp435
VABA_REGION:315
p436
aVUNKN_REGION:34
p437
aVUNKN_REGION:7263
p438
aS'Missing:area'
p439
aVHBP_LAYER:0000006
p440
aVNCBI_GENE:12307
p441
aaasS'sao709770772'
p442
(lp443
(lp444
VUNKN_REGION:7270
p445
aS'Missing:type 1'
p446
aVHBP_MORPHOLOGY:0000054
p447
aa(lp448
(lp449
VUNKN_REGION:7270
p450
aS'Missing:type 1'
p451
aVHBP_MORPHOLOGY:0000054
p452
aaasS'nlx_44081'
p453
(lp454
(lp455
VUNKN_REGION:8
p456
aS'Missing:nucleus'
p457
aS'Function:motor'
p458
aa(lp459
(lp460
VUNKN_REGION:8
p461
aS'Missing:nucleus'
p462
aS'Function:motor'
p463
aaa(lp464
(lp465
VUNKN_REGION:8
p466
aS'Missing:nucleus'
p467
aS'Function:motor'
p468
aaa(lp469
(lp470
VUNKN_REGION:8
p471
aS'Missing:nucleus'
p472
aS'Function:motor'
p473
aaasS'nlx_151692'
p474
(lp475
(lp476
VABA_REGION:549
p477
aS'Missing:ventroposterior nucleus'
p478
aS'Missing:ventroposterior nucleus'
p479
aasS'nlx_151691'
p480
(lp481
(lp482
VABA_REGION:549
p483
aS'Missing:ventroposterior nucleus'
p484
aS'Missing:ventroposterior nucleus'
p485
aS'Function:principal'
p486
aasS'nlx_151690'
p487
(lp488
(lp489
VABA_REGION:549
p490
aVUNKN_REGION:14
p491
aS'Missing:)'
p492
aasS'nlx_146858'
p493
(lp494
(lp495
VUNKN_REGION:7299
p496
aS'Missing:fascicle'
p497
aasS'nlx_148457'
p498
(lp499
(lp500
VHBP_DEVELOPMENTAL:0000007
p501
aasS'nlx_148456'
p502
(lp503
(lp504
VHBP_DEVELOPMENTAL:0000007
p505
aasS'nlx_148455'
p506
(lp507
(lp508
VHBP_DEVELOPMENTAL:0000007
p509
aasS'nlx_148454'
p510
(lp511
(lp512
a(lp513
(lp514
aasS'nlx_148453'
p515
(lp516
(lp517
VHBP_LAYER:0000002
p518
aasS'nlx_148452'
p519
(lp520
(lp521
VHBP_LAYER:0000001
p522
aasS'nlx_148518'
p523
(lp524
(lp525
VUNKN_REGION:23
p526
aS'Missing:Pdf'
p527
aasS'nlx_148450'
p528
(lp529
(lp530
asS'nlx_148516'
p531
(lp532
(lp533
VUNKN_REGION:23
p534
aS'Missing:Pdf'
p535
aasS'nlx_148514'
p536
(lp537
(lp538
VUNKN_REGION:23
p539
aS'Function:pacemaker'
p540
aasS'nlx_148515'
p541
(lp542
(lp543
S'Function:pacemaker'
p544
aasS'nlx_148512'
p545
(lp546
(lp547
VUNKN_REGION:7
p548
aS'Missing:cibarial sense organ'
p549
aasS'nlx_148513'
p550
(lp551
(lp552
VHBP_DEVELOPMENTAL:0000007
p553
aS'Function:pacemaker'
p554
aasS'nlx_148510'
p555
(lp556
(lp557
S'Function:Gustatory'
p558
aS'Function:receptor'
p559
aasS'nlx_148458'
p560
(lp561
(lp562
VHBP_DEVELOPMENTAL:0000007
p563
aasS'nlx_151561'
p564
(lp565
(lp566
VABA_REGION:83
p567
aS'Function:principal'
p568
aasS'nlx_78845'
p569
(lp570
(lp571
VABA_REGION:1
p572
aS'Size:large'
p573
aVHBP_NEUROTRANSMITTER:0000009
p574
aa(lp575
(lp576
VABA_REGION:1
p577
aS'Size:large'
p578
aVHBP_NEUROTRANSMITTER:0000009
p579
aaasS'nlx_146770'
p580
(lp581
(lp582
asS'nlx_146771'
p583
(lp584
(lp585
asS'nlx_146772'
p586
(lp587
(lp588
VUNKN_REGION:7
p589
aVUNKN_REGION:110
p590
aasS'nlx_148060'
p591
(lp592
(lp593
S'Function:Sensory'
p594
aasS'nifext_73'
p595
(lp596
(lp597
VABA_REGION:607
p598
aVUNKN_REGION:7262
p599
aS'Missing:)'
p600
aVHBP_MORPHOLOGY:0000028
p601
aa(lp602
(lp603
VABA_REGION:607
p604
aVUNKN_REGION:7262
p605
aS'Missing:)'
p606
aVHBP_MORPHOLOGY:0000028
p607
aaa(lp608
(lp609
VABA_REGION:607
p610
aVUNKN_REGION:7262
p611
aS'Missing:)'
p612
aVHBP_MORPHOLOGY:0000028
p613
aaa(lp614
(lp615
VABA_REGION:607
p616
aVUNKN_REGION:7262
p617
aS'Missing:)'
p618
aVHBP_MORPHOLOGY:0000028
p619
aaasS'nlx_36222'
p620
(lp621
(lp622
VABA_REGION:375
p623
aVABA_REGION:382
p624
aS'Missing:IS-III'
p625
aa(lp626
(lp627
VABA_REGION:375
p628
aVABA_REGION:382
p629
aS'Missing:IS-III'
p630
aaasS'nlx_68936'
p631
(lp632
(lp633
VABA_REGION:754
p634
aS'Missing:Islets of Calleja'
p635
aVHBP_MORPHOLOGY:0000026
p636
aa(lp637
(lp638
VABA_REGION:754
p639
aS'Missing:Islets of Calleja'
p640
aVHBP_MORPHOLOGY:0000026
p641
aaa(lp642
(lp643
VABA_REGION:754
p644
aS'Missing:Islets of Calleja'
p645
aVHBP_MORPHOLOGY:0000026
p646
aaasS'nlx_cell_100211'
p647
(lp648
(lp649
VUNKN_REGION:575
p650
aVHBP_MORPHOLOGY:0000045
p651
aS'Missing:S'
p652
aVHBP_MORPHOLOGY:0000047
p653
aa(lp654
(lp655
VUNKN_REGION:575
p656
aVHBP_MORPHOLOGY:0000045
p657
aS'Missing:S'
p658
aVHBP_MORPHOLOGY:0000047
p659
aaasS'nlx_cell_100210'
p660
(lp661
(lp662
VUNKN_REGION:575
p663
aVHBP_MORPHOLOGY:0000045
p664
aS'Missing:L'
p665
aVHBP_MORPHOLOGY:0000047
p666
aa(lp667
(lp668
VUNKN_REGION:575
p669
aVHBP_MORPHOLOGY:0000045
p670
aS'Missing:L'
p671
aVHBP_MORPHOLOGY:0000047
p672
aaasS'nlx_cell_100212'
p673
(lp674
(lp675
VUNKN_REGION:575
p676
aVHBP_MORPHOLOGY:0000045
p677
aVHBP_MORPHOLOGY:0000046
p678
aa(lp679
(lp680
VUNKN_REGION:575
p681
aVHBP_MORPHOLOGY:0000045
p682
aVHBP_MORPHOLOGY:0000046
p683
aaa(lp684
(lp685
VUNKN_REGION:575
p686
aVHBP_MORPHOLOGY:0000045
p687
aVHBP_MORPHOLOGY:0000046
p688
aaa(lp689
(lp690
VUNKN_REGION:575
p691
aVHBP_MORPHOLOGY:0000045
p692
aVHBP_MORPHOLOGY:0000046
p693
aaasS'nlx_147379'
p694
(lp695
(lp696
asS'nlx_148422'
p697
(lp698
(lp699
a(lp700
(lp701
aasS'nlx_148423'
p702
(lp703
(lp704
a(lp705
(lp706
aasS'nlx_144252'
p707
(lp708
(lp709
VABA_REGION:507
p710
aVHBP_DEVELOPMENTAL:0000007
p711
aS'Missing:-born'
p712
aVHBP_MORPHOLOGY:0000026
p713
aasS'nlx_148427'
p714
(lp715
(lp716
a(lp717
(lp718
aasS'nlx_151905'
p719
(lp720
(lp721
VUNKN_REGION:1341
p722
aasS'nlx_151909'
p723
(lp724
(lp725
S'Function:motor'
p726
aasS'nlx_148429'
p727
(lp728
(lp729
a(lp730
(lp731
aasS'nlx_77027'
p732
(lp733
(lp734
VABA_REGION:35
p735
aS'Function:motor'
p736
aa(lp737
(lp738
VABA_REGION:35
p739
aS'Function:motor'
p740
aaa(lp741
(lp742
VABA_REGION:35
p743
aS'Function:motor'
p744
aaa(lp745
(lp746
VABA_REGION:35
p747
aS'Function:motor'
p748
aaasS'sao1582628662'
p749
(lp750
(lp751
S'Function:outer'
p752
aVHBP_MORPHOLOGY:0000054
p753
aa(lp754
(lp755
S'Function:outer'
p756
aVHBP_MORPHOLOGY:0000054
p757
aaa(lp758
(lp759
S'Function:outer'
p760
aVHBP_MORPHOLOGY:0000054
p761
aaasS'nlx_148584'
p762
(lp763
(lp764
VUNKN_REGION:7
p765
aS'Missing:lobe arborizing'
p766
aa(lp767
(lp768
VUNKN_REGION:7
p769
aS'Missing:lobe arborizing'
p770
aaasS'nlx_148587'
p771
(lp772
(lp773
VUNKN_REGION:7
p774
aS'Missing:lobe arborizing'
p775
aa(lp776
(lp777
VUNKN_REGION:7
p778
aS'Missing:lobe arborizing'
p779
aaasS'BAMSC1123'
p780
(lp781
(lp782
VUNKN_REGION:4677
p783
aVHBP_MORPHOLOGY:0000001
p784
aa(lp785
(lp786
VUNKN_REGION:4677
p787
aVHBP_MORPHOLOGY:0000001
p788
aaasS'nlx_148581'
p789
(lp790
(lp791
VUNKN_REGION:14
p792
aS'Missing:lobe arborizing'
p793
aa(lp794
(lp795
VUNKN_REGION:14
p796
aS'Missing:lobe arborizing'
p797
aaasS'nlx_148580'
p798
(lp799
(lp800
VUNKN_REGION:14
p801
aS'Missing:lobe arborizing'
p802
aa(lp803
(lp804
VUNKN_REGION:14
p805
aS'Missing:lobe arborizing'
p806
aaasS'nlx_148583'
p807
(lp808
(lp809
VUNKN_REGION:14
p810
aS'Missing:lobe arborizing'
p811
aa(lp812
(lp813
VUNKN_REGION:14
p814
aS'Missing:lobe arborizing'
p815
aaasS'nlx_148582'
p816
(lp817
(lp818
VUNKN_REGION:14
p819
aS'Missing:lobe arborizing'
p820
aa(lp821
(lp822
VUNKN_REGION:14
p823
aS'Missing:lobe arborizing'
p824
aaasS'nlx_148589'
p825
(lp826
(lp827
VUNKN_REGION:14
p828
aVHBP_MORPHOLOGY:0000028
p829
aS'Missing:lobe arborizing'
p830
aa(lp831
(lp832
VUNKN_REGION:14
p833
aVHBP_MORPHOLOGY:0000028
p834
aS'Missing:lobe arborizing'
p835
aaasS'nlx_148588'
p836
(lp837
(lp838
a(lp839
(lp840
aasS'nifext_147'
p841
(lp842
(lp843
VUNKN_REGION:4424
p844
aVABA_REGION:381
p845
aVHBP_NEUROTRANSMITTER:0000003
p846
aa(lp847
(lp848
VUNKN_REGION:4424
p849
aVABA_REGION:381
p850
aVHBP_NEUROTRANSMITTER:0000003
p851
aaa(lp852
(lp853
VUNKN_REGION:4424
p854
aVABA_REGION:381
p855
aVHBP_NEUROTRANSMITTER:0000003
p856
aaa(lp857
(lp858
VUNKN_REGION:4424
p859
aVABA_REGION:381
p860
aVHBP_NEUROTRANSMITTER:0000003
p861
aaasS'nlx_147803'
p862
(lp863
(lp864
VUNKN_REGION:7
p865
aS'Missing:group vA'
p866
aa(lp867
(lp868
VUNKN_REGION:7
p869
aS'Missing:group vA'
p870
aaasS'BAMSC987'
p871
(lp872
(lp873
VABA_REGION:301
p874
aS'Size:small'
p875
aVHBP_MORPHOLOGY:0000001
p876
aa(lp877
(lp878
VABA_REGION:301
p879
aS'Size:small'
p880
aVHBP_MORPHOLOGY:0000001
p881
aaa(lp882
(lp883
VABA_REGION:301
p884
aS'Size:small'
p885
aVHBP_MORPHOLOGY:0000001
p886
aaa(lp887
(lp888
VABA_REGION:301
p889
aS'Size:small'
p890
aVHBP_MORPHOLOGY:0000001
p891
aaasS'BAMSC986'
p892
(lp893
(lp894
VABA_REGION:301
p895
aVHBP_MORPHOLOGY:0000011
p896
aVHBP_MORPHOLOGY:0000006
p897
aa(lp898
(lp899
VABA_REGION:301
p900
aVHBP_MORPHOLOGY:0000011
p901
aVHBP_MORPHOLOGY:0000006
p902
aaa(lp903
(lp904
VABA_REGION:301
p905
aVHBP_MORPHOLOGY:0000011
p906
aVHBP_MORPHOLOGY:0000006
p907
aaasS'nlx_147779'
p908
(lp909
(lp910
S'Function:motor'
p911
aasS'nlx_147778'
p912
(lp913
(lp914
S'Function:motor'
p915
aasS'BAMSC981'
p916
(lp917
(lp918
VABA_REGION:512
p919
aVHBP_MORPHOLOGY:0000038
p920
aa(lp921
(lp922
VABA_REGION:512
p923
aVHBP_MORPHOLOGY:0000038
p924
aaa(lp925
(lp926
VABA_REGION:512
p927
aVHBP_MORPHOLOGY:0000038
p928
aaasS'nlx_146709'
p929
(lp930
(lp931
asS'nlx_147777'
p932
(lp933
(lp934
S'Function:motor'
p935
aasS'nlx_147776'
p936
(lp937
(lp938
S'Function:motor'
p939
aasS'nlx_147775'
p940
(lp941
(lp942
S'Function:motor'
p943
aasS'BAMSC988'
p944
(lp945
(lp946
VABA_REGION:301
p947
aVHBP_MORPHOLOGY:0000019
p948
aa(lp949
(lp950
VABA_REGION:301
p951
aVHBP_MORPHOLOGY:0000019
p952
aaa(lp953
(lp954
VABA_REGION:301
p955
aVHBP_MORPHOLOGY:0000019
p956
aaa(lp957
(lp958
VABA_REGION:301
p959
aVHBP_MORPHOLOGY:0000019
p960
aaa(lp961
(lp962
VABA_REGION:301
p963
aVHBP_MORPHOLOGY:0000019
p964
aaasS'nlx_144179'
p965
(lp966
(lp967
VUNKN_REGION:4645
p968
aVUNKN_REGION:240
p969
aa(lp970
(lp971
VUNKN_REGION:4645
p972
aVUNKN_REGION:240
p973
aaa(lp974
(lp975
VUNKN_REGION:4645
p976
aVUNKN_REGION:240
p977
aaasS'nlx_151646'
p978
(lp979
(lp980
S'Function:principal'
p981
aa(lp982
(lp983
S'Function:principal'
p984
aaasS'nlx_148635'
p985
(lp986
(lp987
VHBP_NEUROTRANSMITTER:0000004
p988
aasS'nlx_148736'
p989
(lp990
(lp991
VUNKN_REGION:23
p992
aS'Function:olfactory'
p993
aS'Function:receptor'
p994
aa(lp995
(lp996
VUNKN_REGION:23
p997
aS'Function:olfactory'
p998
aS'Function:receptor'
p999
aaasS'nlx_148737'
p1000
(lp1001
(lp1002
VUNKN_REGION:23
p1003
aS'Function:olfactory'
p1004
aS'Function:receptor'
p1005
aa(lp1006
(lp1007
VUNKN_REGION:23
p1008
aS'Function:olfactory'
p1009
aS'Function:receptor'
p1010
aaasS'nlx_148734'
p1011
(lp1012
(lp1013
VUNKN_REGION:23
p1014
aS'Function:olfactory'
p1015
aS'Function:receptor'
p1016
aa(lp1017
(lp1018
VUNKN_REGION:23
p1019
aS'Function:olfactory'
p1020
aS'Function:receptor'
p1021
aaasS'nlx_148735'
p1022
(lp1023
(lp1024
VUNKN_REGION:23
p1025
aS'Function:olfactory'
p1026
aS'Function:receptor'
p1027
aa(lp1028
(lp1029
VUNKN_REGION:23
p1030
aS'Function:olfactory'
p1031
aS'Function:receptor'
p1032
aaasS'nlx_148732'
p1033
(lp1034
(lp1035
VUNKN_REGION:23
p1036
aS'Function:olfactory'
p1037
aS'Function:receptor'
p1038
aa(lp1039
(lp1040
VUNKN_REGION:23
p1041
aS'Function:olfactory'
p1042
aS'Function:receptor'
p1043
aaasS'nlx_148733'
p1044
(lp1045
(lp1046
VUNKN_REGION:23
p1047
aS'Function:olfactory'
p1048
aS'Function:receptor'
p1049
aa(lp1050
(lp1051
VUNKN_REGION:23
p1052
aS'Function:olfactory'
p1053
aS'Function:receptor'
p1054
aaasS'nlx_148730'
p1055
(lp1056
(lp1057
VUNKN_REGION:23
p1058
aS'Function:olfactory'
p1059
aS'Function:receptor'
p1060
aa(lp1061
(lp1062
VUNKN_REGION:23
p1063
aS'Function:olfactory'
p1064
aS'Function:receptor'
p1065
aaasS'nlx_148731'
p1066
(lp1067
(lp1068
VUNKN_REGION:23
p1069
aS'Function:olfactory'
p1070
aS'Function:receptor'
p1071
aa(lp1072
(lp1073
VUNKN_REGION:23
p1074
aS'Function:olfactory'
p1075
aS'Function:receptor'
p1076
aaasS'nifext_46'
p1077
(lp1078
(lp1079
VABA_REGION:549
p1080
aVUNKN_REGION:15
p1081
aS'Missing:)'
p1082
aa(lp1083
(lp1084
VABA_REGION:549
p1085
aVUNKN_REGION:15
p1086
aS'Missing:)'
p1087
aaa(lp1088
(lp1089
VABA_REGION:549
p1090
aVUNKN_REGION:15
p1091
aS'Missing:)'
p1092
aaasS'BAMSC1117'
p1093
(lp1094
(lp1095
VUNKN_REGION:4677
p1096
aS'Missing:piriform'
p1097
aa(lp1098
(lp1099
VUNKN_REGION:4677
p1100
aS'Missing:piriform'
p1101
aaa(lp1102
(lp1103
VUNKN_REGION:4677
p1104
aS'Missing:piriform'
p1105
aaasS'nifext_45'
p1106
(lp1107
(lp1108
VABA_REGION:549
p1109
aS'Missing:nucleus'
p1110
aa(lp1111
(lp1112
VABA_REGION:549
p1113
aS'Missing:nucleus'
p1114
aaa(lp1115
(lp1116
VABA_REGION:549
p1117
aS'Missing:nucleus'
p1118
aaa(lp1119
(lp1120
VABA_REGION:549
p1121
aS'Missing:nucleus'
p1122
aaasS'BAMSC1112'
p1123
(lp1124
(lp1125
VABA_REGION:237
p1126
aS'Missing:nucleus HSD2'
p1127
aa(lp1128
(lp1129
VABA_REGION:237
p1130
aS'Missing:nucleus HSD2'
p1131
aaa(lp1132
(lp1133
VABA_REGION:237
p1134
aS'Missing:nucleus HSD2'
p1135
aaasS'nlx_148738'
p1136
(lp1137
(lp1138
VUNKN_REGION:23
p1139
aS'Function:olfactory'
p1140
aS'Function:receptor'
p1141
aa(lp1142
(lp1143
VUNKN_REGION:23
p1144
aS'Function:olfactory'
p1145
aS'Function:receptor'
p1146
aaasS'nlx_148739'
p1147
(lp1148
(lp1149
VUNKN_REGION:23
p1150
aS'Function:olfactory'
p1151
aS'Function:receptor'
p1152
aa(lp1153
(lp1154
VUNKN_REGION:23
p1155
aS'Function:olfactory'
p1156
aS'Function:receptor'
p1157
aaasS'BAMSC1056'
p1158
(lp1159
(lp1160
VUNKN_REGION:575
p1161
aS'Missing:stratified diffuse'
p1162
aVHBP_MORPHOLOGY:0000044
p1163
aa(lp1164
(lp1165
VUNKN_REGION:575
p1166
aS'Missing:stratified diffuse'
p1167
aVHBP_MORPHOLOGY:0000044
p1168
aaasS'BAMSC1055'
p1169
(lp1170
(lp1171
VUNKN_REGION:575
p1172
aVHBP_MORPHOLOGY:0000065
p1173
aVHBP_MORPHOLOGY:0000044
p1174
aa(lp1175
(lp1176
VUNKN_REGION:575
p1177
aVHBP_MORPHOLOGY:0000065
p1178
aVHBP_MORPHOLOGY:0000044
p1179
aaasS'BAMSC1051'
p1180
(lp1181
(lp1182
VUNKN_REGION:575
p1183
aVHBP_MORPHOLOGY:0000058
p1184
aa(lp1185
(lp1186
VUNKN_REGION:575
p1187
aVHBP_MORPHOLOGY:0000058
p1188
aaasS'BAMSC1050'
p1189
(lp1190
(lp1191
VUNKN_REGION:575
p1192
aVHBP_MORPHOLOGY:0000058
p1193
aa(lp1194
(lp1195
VUNKN_REGION:575
p1196
aVHBP_MORPHOLOGY:0000058
p1197
aaasS'nlx_148280'
p1198
(lp1199
(lp1200
asS'nlx_146820'
p1201
(lp1202
(lp1203
VUNKN_REGION:7299
p1204
aS'Missing:fascicle'
p1205
aasS'nifext_148'
p1206
(lp1207
(lp1208
VUNKN_REGION:4424
p1209
aVABA_REGION:381
p1210
aS'Function:principal'
p1211
aa(lp1212
(lp1213
VUNKN_REGION:4424
p1214
aVABA_REGION:381
p1215
aS'Function:principal'
p1216
aaasS'nifext_149'
p1217
(lp1218
(lp1219
VABA_REGION:803
p1220
aS'Function:principal'
p1221
aasS'nlx_147801'
p1222
(lp1223
(lp1224
asS'nlx_147800'
p1225
(lp1226
(lp1227
asS'nifext_144'
p1228
(lp1229
(lp1230
VABA_REGION:672
p1231
aVNCBI_GENE:20604
p1232
aS'Missing:/'
p1233
aVNCBI_GENE:18125
p1234
aa(lp1235
(lp1236
VABA_REGION:672
p1237
aVNCBI_GENE:20604
p1238
aS'Missing:/'
p1239
aVNCBI_GENE:18125
p1240
aaa(lp1241
(lp1242
VABA_REGION:672
p1243
aVNCBI_GENE:20604
p1244
aS'Missing:/'
p1245
aVNCBI_GENE:18125
p1246
aaa(lp1247
(lp1248
VABA_REGION:672
p1249
aVNCBI_GENE:20604
p1250
aS'Missing:/'
p1251
aVNCBI_GENE:18125
p1252
aaa(lp1253
(lp1254
VABA_REGION:672
p1255
aVNCBI_GENE:20604
p1256
aS'Missing:/'
p1257
aVNCBI_GENE:18125
p1258
aaa(lp1259
(lp1260
VABA_REGION:672
p1261
aVNCBI_GENE:20604
p1262
aS'Missing:/'
p1263
aVNCBI_GENE:18125
p1264
aaa(lp1265
(lp1266
VABA_REGION:672
p1267
aVNCBI_GENE:20604
p1268
aS'Missing:/'
p1269
aVNCBI_GENE:18125
p1270
aaasS'nlx_147802'
p1271
(lp1272
(lp1273
VUNKN_REGION:7262
p1274
aS'Missing:group dA'
p1275
aasS'nifext_143'
p1276
(lp1277
(lp1278
VABA_REGION:672
p1279
aVHBP_NEUROTRANSMITTER:0000003
p1280
aS'Missing:/'
p1281
aVNCBI_GENE:19293
p1282
aa(lp1283
(lp1284
VABA_REGION:672
p1285
aVHBP_NEUROTRANSMITTER:0000003
p1286
aS'Missing:/'
p1287
aVNCBI_GENE:19293
p1288
aaa(lp1289
(lp1290
VABA_REGION:672
p1291
aVHBP_NEUROTRANSMITTER:0000003
p1292
aS'Missing:/'
p1293
aVNCBI_GENE:19293
p1294
aaa(lp1295
(lp1296
VABA_REGION:672
p1297
aVHBP_NEUROTRANSMITTER:0000003
p1298
aS'Missing:/'
p1299
aVNCBI_GENE:19293
p1300
aaasS'nlx_70345'
p1301
(lp1302
(lp1303
VABA_REGION:115
p1304
aS'Function:motor'
p1305
aa(lp1306
(lp1307
VABA_REGION:115
p1308
aS'Function:motor'
p1309
aaa(lp1310
(lp1311
VABA_REGION:115
p1312
aS'Function:motor'
p1313
aaa(lp1314
(lp1315
VABA_REGION:115
p1316
aS'Function:motor'
p1317
aaasS'nlx_146556'
p1318
(lp1319
(lp1320
a(lp1321
(lp1322
aasS'nlx_146557'
p1323
(lp1324
(lp1325
asS'sao1438006234'
p1326
(lp1327
(lp1328
VUNKN_REGION:4645
p1329
aVUNKN_REGION:240
p1330
aS'Function:motor'
p1331
aa(lp1332
(lp1333
VUNKN_REGION:4645
p1334
aVUNKN_REGION:240
p1335
aS'Function:motor'
p1336
aaa(lp1337
(lp1338
VUNKN_REGION:4645
p1339
aVUNKN_REGION:240
p1340
aS'Function:motor'
p1341
aaasS'nlx_147852'
p1342
(lp1343
(lp1344
asS'nlx_146558'
p1345
(lp1346
(lp1347
asS'nlx_146559'
p1348
(lp1349
(lp1350
asS'nlx_147853'
p1351
(lp1352
(lp1353
asS'nlx_147786'
p1354
(lp1355
(lp1356
S'Function:motor'
p1357
aasS'nlx_148122'
p1358
(lp1359
(lp1360
asS'nlx_147784'
p1361
(lp1362
(lp1363
S'Function:motor'
p1364
aasS'nlx_148120'
p1365
(lp1366
(lp1367
asS'nlx_147782'
p1368
(lp1369
(lp1370
VUNKN_REGION:7
p1371
aS'Missing:tp'
p1372
aS'Function:motor'
p1373
aasS'nlx_147783'
p1374
(lp1375
(lp1376
S'Function:motor'
p1377
aasS'nlx_147780'
p1378
(lp1379
(lp1380
S'Function:motor'
p1381
aasS'nlx_147781'
p1382
(lp1383
(lp1384
VUNKN_REGION:7262
p1385
aS'Missing:tp'
p1386
aS'Function:motor'
p1387
aasS'nlx_152141'
p1388
(lp1389
(lp1390
VUNKN_REGION:575
p1391
aS'Missing:thick dendrite'
p1392
aS'Orientation:horizontal'
p1393
aVHBP_MORPHOLOGY:0000027
p1394
aa(lp1395
(lp1396
VUNKN_REGION:575
p1397
aS'Missing:thick dendrite'
p1398
aS'Orientation:horizontal'
p1399
aVHBP_MORPHOLOGY:0000027
p1400
aaasS'nlx_147788'
p1401
(lp1402
(lp1403
S'Function:motor'
p1404
aasS'nlx_147789'
p1405
(lp1406
(lp1407
S'Function:motor'
p1408
aasS'nlx_147894'
p1409
(lp1410
(lp1411
VUNKN_REGION:7
p1412
aVUNKN_REGION:4635
p1413
aS'Missing:cluster'
p1414
aasS'BAMSC1126'
p1415
(lp1416
(lp1417
VUNKN_REGION:4677
p1418
aS'Missing:type I'
p1419
aVHBP_MORPHOLOGY:0000058
p1420
aa(lp1421
(lp1422
VUNKN_REGION:4677
p1423
aS'Missing:type I'
p1424
aVHBP_MORPHOLOGY:0000058
p1425
aaasS'nlx_22799'
p1426
(lp1427
(lp1428
VABA_REGION:726
p1429
aVHBP_MORPHOLOGY:0000064
p1430
aa(lp1431
(lp1432
VABA_REGION:726
p1433
aVHBP_MORPHOLOGY:0000064
p1434
aaa(lp1435
(lp1436
VABA_REGION:726
p1437
aVHBP_MORPHOLOGY:0000064
p1438
aaa(lp1439
(lp1440
VABA_REGION:726
p1441
aVHBP_MORPHOLOGY:0000064
p1442
aaasS'nlx_146738'
p1443
(lp1444
(lp1445
asS'nlx_148123'
p1446
(lp1447
(lp1448
asS'nlx_147787'
p1449
(lp1450
(lp1451
S'Function:motor'
p1452
aasS'nlx_146730'
p1453
(lp1454
(lp1455
asS'nlx_146731'
p1456
(lp1457
(lp1458
asS'nlx_146732'
p1459
(lp1460
(lp1461
asS'nlx_146733'
p1462
(lp1463
(lp1464
asS'nlx_146734'
p1465
(lp1466
(lp1467
asS'nlx_146735'
p1468
(lp1469
(lp1470
asS'nlx_146737'
p1471
(lp1472
(lp1473
asS'nlx_147391'
p1474
(lp1475
(lp1476
a(lp1477
(lp1478
aasS'nlx_147393'
p1479
(lp1480
(lp1481
VUNKN_REGION:15
p1482
aS'Missing:fan-shaped'
p1483
aasS'nlx_147392'
p1484
(lp1485
(lp1486
a(lp1487
(lp1488
aasS'nlx_147395'
p1489
(lp1490
(lp1491
VUNKN_REGION:81
p1492
aS'Missing:pb'
p1493
aasS'nlx_147394'
p1494
(lp1495
(lp1496
VUNKN_REGION:81
p1497
aasS'nlx_147396'
p1498
(lp1499
(lp1500
VUNKN_REGION:81
p1501
aS'Missing:no'
p1502
aasS'nlx_147399'
p1503
(lp1504
(lp1505
VHBP_EPHYS:0000040
p1506
aS'Missing:vbo'
p1507
aS'Missing:vbo'
p1508
aasS'nlx_147398'
p1509
(lp1510
(lp1511
VHBP_EPHYS:0000040
p1512
aa(lp1513
(lp1514
VHBP_EPHYS:0000040
p1515
aaasS'nlx_148126'
p1516
(lp1517
(lp1518
asS'nlx_152508'
p1519
(lp1520
(lp1521
VUNKN_REGION:50
p1522
aasS'sao383526650'
p1523
(lp1524
(lp1525
VABA_REGION:375
p1526
aVABA_REGION:463
p1527
aVHBP_MORPHOLOGY:0000001
p1528
aa(lp1529
(lp1530
VABA_REGION:375
p1531
aVABA_REGION:463
p1532
aVHBP_MORPHOLOGY:0000001
p1533
aaa(lp1534
(lp1535
VABA_REGION:375
p1536
aVABA_REGION:463
p1537
aVHBP_MORPHOLOGY:0000001
p1538
aaa(lp1539
(lp1540
VABA_REGION:375
p1541
aVABA_REGION:463
p1542
aVHBP_MORPHOLOGY:0000001
p1543
aaasS'nlx_148577'
p1544
(lp1545
(lp1546
VUNKN_REGION:14
p1547
aS'Missing:lobe arborizing'
p1548
aa(lp1549
(lp1550
VUNKN_REGION:14
p1551
aS'Missing:lobe arborizing'
p1552
aaasS'nlx_16848'
p1553
(lp1554
(lp1555
VABA_REGION:653
p1556
aS'Function:motor'
p1557
aa(lp1558
(lp1559
VABA_REGION:653
p1560
aS'Function:motor'
p1561
aaa(lp1562
(lp1563
VABA_REGION:653
p1564
aS'Function:motor'
p1565
aaa(lp1566
(lp1567
VABA_REGION:653
p1568
aS'Function:motor'
p1569
aaasS'BAMSC995'
p1570
(lp1571
(lp1572
VABA_REGION:301
p1573
aVHBP_MORPHOLOGY:0000069
p1574
aa(lp1575
(lp1576
VABA_REGION:301
p1577
aVHBP_MORPHOLOGY:0000069
p1578
aaa(lp1579
(lp1580
VABA_REGION:301
p1581
aVHBP_MORPHOLOGY:0000069
p1582
aaasS'nlx_148467'
p1583
(lp1584
(lp1585
VHBP_MORPHOLOGY:0000045
p1586
aa(lp1587
(lp1588
VHBP_MORPHOLOGY:0000045
p1589
aaasS'nlx_148464'
p1590
(lp1591
(lp1592
VHBP_DEVELOPMENTAL:0000007
p1593
aasS'nlx_148465'
p1594
(lp1595
(lp1596
VHBP_DEVELOPMENTAL:0000007
p1597
aasS'nlx_148462'
p1598
(lp1599
(lp1600
VHBP_DEVELOPMENTAL:0000007
p1601
aasS'nlx_148463'
p1602
(lp1603
(lp1604
VHBP_DEVELOPMENTAL:0000007
p1605
aasS'nlx_148460'
p1606
(lp1607
(lp1608
VHBP_DEVELOPMENTAL:0000007
p1609
aasS'nlx_148461'
p1610
(lp1611
(lp1612
VHBP_DEVELOPMENTAL:0000007
p1613
aasS'nlx_149018'
p1614
(lp1615
(lp1616
VHBP_DEVELOPMENTAL:0000007
p1617
aVUNKN_REGION:7299
p1618
aS'Missing:LK leucokinin'
p1619
aa(lp1620
(lp1621
VHBP_DEVELOPMENTAL:0000007
p1622
aVUNKN_REGION:7299
p1623
aS'Missing:LK leucokinin'
p1624
aaasS'nlx_148239'
p1625
(lp1626
(lp1627
VHBP_MORPHOLOGY:0000028
p1628
aS'Missing:fiber system'
p1629
aasS'nlx_148238'
p1630
(lp1631
(lp1632
VHBP_MORPHOLOGY:0000028
p1633
aS'Missing:fiber system'
p1634
aasS'nlx_148247'
p1635
(lp1636
(lp1637
S'Orientation:Horizontal'
p1638
aVHBP_MORPHOLOGY:0000027
p1639
aS'Missing:fiber system'
p1640
aS'Missing:fiber system'
p1641
aasS'nlx_149010'
p1642
(lp1643
(lp1644
VHBP_DEVELOPMENTAL:0000007
p1645
aS'Missing:tachykinin'
p1646
aS'Missing:tachykinin'
p1647
aVUNKN_REGION:98
p1648
aVHBP_MORPHOLOGY:0000058
p1649
aasS'nlx_148237'
p1650
(lp1651
(lp1652
VHBP_MORPHOLOGY:0000028
p1653
aS'Missing:fiber system'
p1654
aasS'nlx_149015'
p1655
(lp1656
(lp1657
VHBP_DEVELOPMENTAL:0000007
p1658
aS'Missing:leucokinin SELK'
p1659
aVHBP_MORPHOLOGY:0000058
p1660
aa(lp1661
(lp1662
VHBP_DEVELOPMENTAL:0000007
p1663
aS'Missing:leucokinin SELK'
p1664
aVHBP_MORPHOLOGY:0000058
p1665
aaasS'nlx_148235'
p1666
(lp1667
(lp1668
VHBP_MORPHOLOGY:0000028
p1669
aS'Missing:fiber system'
p1670
aasS'nlx_149017'
p1671
(lp1672
(lp1673
VHBP_DEVELOPMENTAL:0000007
p1674
aVUNKN_REGION:7288
p1675
aS'Missing:LHKL leucokinin'
p1676
aa(lp1677
(lp1678
VHBP_DEVELOPMENTAL:0000007
p1679
aVUNKN_REGION:7288
p1680
aS'Missing:LHKL leucokinin'
p1681
aaasS'nlx_148245'
p1682
(lp1683
(lp1684
S'Orientation:Horizontal'
p1685
aVHBP_MORPHOLOGY:0000027
p1686
aS'Missing:fiber system'
p1687
aS'Missing:fiber system'
p1688
aasS'nlx_152070'
p1689
(lp1690
(lp1691
VUNKN_REGION:50
p1692
aa(lp1693
(lp1694
VUNKN_REGION:50
p1695
aaasS'nlx_148578'
p1696
(lp1697
(lp1698
VUNKN_REGION:14
p1699
aS'Missing:lobe arborizing'
p1700
aa(lp1701
(lp1702
VUNKN_REGION:14
p1703
aS'Missing:lobe arborizing'
p1704
aaasS'nlx_146689'
p1705
(lp1706
(lp1707
VHBP_MORPHOLOGY:0000006
p1708
aa(lp1709
(lp1710
VHBP_MORPHOLOGY:0000006
p1711
aaasS'nlx_83979'
p1712
(lp1713
(lp1714
VUNKN_REGION:7017
p1715
aS'Function:motor'
p1716
aa(lp1717
(lp1718
VUNKN_REGION:7017
p1719
aS'Function:motor'
p1720
aaa(lp1721
(lp1722
VUNKN_REGION:7017
p1723
aS'Function:motor'
p1724
aaa(lp1725
(lp1726
VUNKN_REGION:7017
p1727
aS'Function:motor'
p1728
aaa(lp1729
(lp1730
VUNKN_REGION:7017
p1731
aS'Function:motor'
p1732
aaasS'nlx_148579'
p1733
(lp1734
(lp1735
VUNKN_REGION:14
p1736
aS'Missing:lobe arborizing'
p1737
aa(lp1738
(lp1739
VUNKN_REGION:14
p1740
aS'Missing:lobe arborizing'
p1741
aaasS'nlx_149001'
p1742
(lp1743
(lp1744
VUNKN_REGION:20
p1745
aS'Missing:lobes tachykinin'
p1746
aa(lp1747
(lp1748
VUNKN_REGION:20
p1749
aS'Missing:lobes tachykinin'
p1750
aaasS'nlx_148504'
p1751
(lp1752
(lp1753
VUNKN_REGION:7262
p1754
aVHBP_MORPHOLOGY:0000058
p1755
aa(lp1756
(lp1757
VUNKN_REGION:7262
p1758
aVHBP_MORPHOLOGY:0000058
p1759
aaasS'nlx_147736'
p1760
(lp1761
(lp1762
asS'nlx_147735'
p1763
(lp1764
(lp1765
VUNKN_REGION:7
p1766
aS'Missing:cibarial sense organ'
p1767
aasS'nlx_147733'
p1768
(lp1769
(lp1770
asS'nlx_147732'
p1771
(lp1772
(lp1773
VUNKN_REGION:7262
p1774
aS'Missing:cibarial sense organ'
p1775
aasS'nlx_147730'
p1776
(lp1777
(lp1778
S'Size:Giant'
p1779
aS'Missing:fiber'
p1780
aa(lp1781
(lp1782
S'Size:Giant'
p1783
aS'Missing:fiber'
p1784
aaasS'nlx_147739'
p1785
(lp1786
(lp1787
VHBP_DEVELOPMENTAL:0000007
p1788
aS'Missing:labial'
p1789
aS'Function:sensory'
p1790
aasS'BAMSC1129'
p1791
(lp1792
(lp1793
VUNKN_REGION:4677
p1794
aVHBP_MORPHOLOGY:0000013
p1795
aa(lp1796
(lp1797
VUNKN_REGION:4677
p1798
aVHBP_MORPHOLOGY:0000013
p1799
aaasS'BAMSC1013'
p1800
(lp1801
(lp1802
VUNKN_REGION:575
p1803
aS'Missing:stratified'
p1804
aVHBP_MORPHOLOGY:0000044
p1805
aasS'BAMSC1012'
p1806
(lp1807
(lp1808
VUNKN_REGION:575
p1809
aS'Missing:wide field diffuse'
p1810
aVHBP_MORPHOLOGY:0000044
p1811
aasS'BAMSC1011'
p1812
(lp1813
(lp1814
VUNKN_REGION:575
p1815
aS'Missing:C'
p1816
aVHBP_MORPHOLOGY:0000058
p1817
aa(lp1818
(lp1819
VUNKN_REGION:575
p1820
aS'Missing:C'
p1821
aVHBP_MORPHOLOGY:0000058
p1822
aaasS'BAMSC1010'
p1823
(lp1824
(lp1825
VUNKN_REGION:575
p1826
aS'Missing:B'
p1827
aVHBP_MORPHOLOGY:0000058
p1828
aa(lp1829
(lp1830
VUNKN_REGION:575
p1831
aS'Missing:B'
p1832
aVHBP_MORPHOLOGY:0000058
p1833
aaasS'BAMSC1017'
p1834
(lp1835
(lp1836
VUNKN_REGION:575
p1837
aS'Missing:type 3'
p1838
aVHBP_MORPHOLOGY:0000047
p1839
aVHBP_MORPHOLOGY:0000006
p1840
aa(lp1841
(lp1842
VUNKN_REGION:575
p1843
aS'Missing:type 3'
p1844
aVHBP_MORPHOLOGY:0000047
p1845
aVHBP_MORPHOLOGY:0000006
p1846
aaasS'BAMSC1016'
p1847
(lp1848
(lp1849
VUNKN_REGION:575
p1850
aS'Missing:type 2'
p1851
aVHBP_MORPHOLOGY:0000047
p1852
aVHBP_MORPHOLOGY:0000006
p1853
aa(lp1854
(lp1855
VUNKN_REGION:575
p1856
aS'Missing:type 2'
p1857
aVHBP_MORPHOLOGY:0000047
p1858
aVHBP_MORPHOLOGY:0000006
p1859
aaasS'nlx_147369'
p1860
(lp1861
(lp1862
S'Orientation:Horizontal'
p1863
aVHBP_MORPHOLOGY:0000027
p1864
aS'Missing:fiber system'
p1865
aS'Missing:fiber system'
p1866
aa(lp1867
(lp1868
S'Orientation:Horizontal'
p1869
aVHBP_MORPHOLOGY:0000027
p1870
aS'Missing:fiber system'
p1871
aS'Missing:fiber system'
p1872
aaasS'BAMSC1019'
p1873
(lp1874
(lp1875
VUNKN_REGION:575
p1876
aS'Missing:type 5'
p1877
aVHBP_MORPHOLOGY:0000047
p1878
aVHBP_MORPHOLOGY:0000006
p1879
aa(lp1880
(lp1881
VUNKN_REGION:575
p1882
aS'Missing:type 5'
p1883
aVHBP_MORPHOLOGY:0000047
p1884
aVHBP_MORPHOLOGY:0000006
p1885
aaasS'BAMSC1018'
p1886
(lp1887
(lp1888
VUNKN_REGION:575
p1889
aS'Missing:type 4'
p1890
aVHBP_MORPHOLOGY:0000047
p1891
aVHBP_MORPHOLOGY:0000006
p1892
aa(lp1893
(lp1894
VUNKN_REGION:575
p1895
aS'Missing:type 4'
p1896
aVHBP_MORPHOLOGY:0000047
p1897
aVHBP_MORPHOLOGY:0000006
p1898
aaasS'nlx_78883'
p1899
(lp1900
(lp1901
VABA_REGION:726
p1902
aVHBP_MORPHOLOGY:0000011
p1903
aS'Missing:CR'
p1904
aa(lp1905
(lp1906
VABA_REGION:726
p1907
aVHBP_MORPHOLOGY:0000011
p1908
aS'Missing:CR'
p1909
aaa(lp1910
(lp1911
VABA_REGION:726
p1912
aVHBP_MORPHOLOGY:0000011
p1913
aS'Missing:CR'
p1914
aaasS'nlx_155547'
p1915
(lp1916
(lp1917
a(lp1918
(lp1919
aa(lp1920
(lp1921
aa(lp1922
(lp1923
aa(lp1924
(lp1925
aasS'nlx_147931'
p1926
(lp1927
(lp1928
S'Function:Pacemaker'
p1929
aasS'nlx_144180'
p1930
(lp1931
(lp1932
VUNKN_REGION:4645
p1933
aVUNKN_REGION:240
p1934
aasS'nlx_147840'
p1935
(lp1936
(lp1937
VHBP_MORPHOLOGY:0000058
p1938
aasS'nlx_cell_1006033'
p1939
(lp1940
(lp1941
VUNKN_REGION:4645
p1942
aVUNKN_REGION:240
p1943
aa(lp1944
(lp1945
VUNKN_REGION:4645
p1946
aVUNKN_REGION:240
p1947
aaa(lp1948
(lp1949
VUNKN_REGION:4645
p1950
aVUNKN_REGION:240
p1951
aaasS'nlx_147849'
p1952
(lp1953
(lp1954
VUNKN_REGION:110
p1955
aa(lp1956
(lp1957
VUNKN_REGION:110
p1958
aaasS'nlx_147848'
p1959
(lp1960
(lp1961
asS'nlx_147742'
p1962
(lp1963
(lp1964
S'Function:sensory'
p1965
aVUNKN_REGION:7
p1966
aVUNKN_REGION:26
p1967
aasS'nlx_147743'
p1968
(lp1969
(lp1970
S'Function:sensory'
p1971
aVUNKN_REGION:7262
p1972
aVUNKN_REGION:26
p1973
aasS'nlx_147740'
p1974
(lp1975
(lp1976
S'Function:sensory'
p1977
aasS'nlx_147741'
p1978
(lp1979
(lp1980
S'Function:sensory'
p1981
aasS'nlx_147746'
p1982
(lp1983
(lp1984
S'Function:sensory'
p1985
aS'Function:central'
p1986
aasS'nlx_147747'
p1987
(lp1988
(lp1989
VHBP_DEVELOPMENTAL:0000007
p1990
aS'Missing:labial'
p1991
aasS'nlx_147744'
p1992
(lp1993
(lp1994
S'Function:sensory'
p1995
aVUNKN_REGION:7
p1996
aVUNKN_REGION:28
p1997
aasS'nlx_147745'
p1998
(lp1999
(lp2000
S'Function:sensory'
p2001
aVUNKN_REGION:7262
p2002
aVUNKN_REGION:28
p2003
aasS'nlx_147748'
p2004
(lp2005
(lp2006
asS'nlx_148164'
p2007
(lp2008
(lp2009
VHBP_EPHYS:0000040
p2010
aasS'nlx_147362'
p2011
(lp2012
(lp2013
VHBP_DEVELOPMENTAL:0000007
p2014
aS'Missing:DN period'
p2015
aasS'nlx_146768'
p2016
(lp2017
(lp2018
asS'nifext_37'
p2019
(lp2020
(lp2021
VUNKN_REGION:575
p2022
aVHBP_MORPHOLOGY:0000050
p2023
aVHBP_MORPHOLOGY:0000044
p2024
aa(lp2025
(lp2026
VUNKN_REGION:575
p2027
aVHBP_MORPHOLOGY:0000050
p2028
aVHBP_MORPHOLOGY:0000044
p2029
aaa(lp2030
(lp2031
VUNKN_REGION:575
p2032
aVHBP_MORPHOLOGY:0000050
p2033
aVHBP_MORPHOLOGY:0000044
p2034
aaasS'nifext_36'
p2035
(lp2036
(lp2037
VUNKN_REGION:575
p2038
aVHBP_MORPHOLOGY:0000044
p2039
aa(lp2040
(lp2041
VUNKN_REGION:575
p2042
aVHBP_MORPHOLOGY:0000044
p2043
aaa(lp2044
(lp2045
VUNKN_REGION:575
p2046
aVHBP_MORPHOLOGY:0000044
p2047
aaasS'nifext_35'
p2048
(lp2049
(lp2050
VUNKN_REGION:575
p2051
aVHBP_MORPHOLOGY:0000049
p2052
aVHBP_MORPHOLOGY:0000006
p2053
aa(lp2054
(lp2055
VUNKN_REGION:575
p2056
aVHBP_MORPHOLOGY:0000049
p2057
aVHBP_MORPHOLOGY:0000006
p2058
aaa(lp2059
(lp2060
VUNKN_REGION:575
p2061
aVHBP_MORPHOLOGY:0000049
p2062
aVHBP_MORPHOLOGY:0000006
p2063
aaasS'nifext_34'
p2064
(lp2065
(lp2066
VUNKN_REGION:575
p2067
aVHBP_MORPHOLOGY:0000048
p2068
aVHBP_MORPHOLOGY:0000006
p2069
aa(lp2070
(lp2071
VUNKN_REGION:575
p2072
aVHBP_MORPHOLOGY:0000048
p2073
aVHBP_MORPHOLOGY:0000006
p2074
aaa(lp2075
(lp2076
VUNKN_REGION:575
p2077
aVHBP_MORPHOLOGY:0000048
p2078
aVHBP_MORPHOLOGY:0000006
p2079
aaasS'nifext_33'
p2080
(lp2081
(lp2082
VUNKN_REGION:575
p2083
aVHBP_MORPHOLOGY:0000006
p2084
aa(lp2085
(lp2086
VUNKN_REGION:575
p2087
aVHBP_MORPHOLOGY:0000006
p2088
aaasS'nifext_32'
p2089
(lp2090
(lp2091
VUNKN_REGION:575
p2092
aVHBP_MORPHOLOGY:0000006
p2093
aa(lp2094
(lp2095
VUNKN_REGION:575
p2096
aVHBP_MORPHOLOGY:0000006
p2097
aaasS'nifext_31'
p2098
(lp2099
(lp2100
VUNKN_REGION:575
p2101
aVHBP_MORPHOLOGY:0000006
p2102
aa(lp2103
(lp2104
VUNKN_REGION:575
p2105
aVHBP_MORPHOLOGY:0000006
p2106
aaa(lp2107
(lp2108
VUNKN_REGION:575
p2109
aVHBP_MORPHOLOGY:0000006
p2110
aaasS'nifext_39'
p2111
(lp2112
(lp2113
VUNKN_REGION:575
p2114
aS'Missing:displaced'
p2115
aVHBP_MORPHOLOGY:0000044
p2116
aa(lp2117
(lp2118
VUNKN_REGION:575
p2119
aS'Missing:displaced'
p2120
aVHBP_MORPHOLOGY:0000044
p2121
aaa(lp2122
(lp2123
VUNKN_REGION:575
p2124
aS'Missing:displaced'
p2125
aVHBP_MORPHOLOGY:0000044
p2126
aaasS'nifext_38'
p2127
(lp2128
(lp2129
VUNKN_REGION:575
p2130
aVUNKN_REGION:7318
p2131
aa(lp2132
(lp2133
VUNKN_REGION:575
p2134
aVUNKN_REGION:7318
p2135
aaasS'nifext_111'
p2136
(lp2137
(lp2138
VUNKN_REGION:4645
p2139
aVUNKN_REGION:240
p2140
aa(lp2141
(lp2142
VUNKN_REGION:4645
p2143
aVUNKN_REGION:240
p2144
aaasS'nifext_110'
p2145
(lp2146
(lp2147
VUNKN_REGION:4645
p2148
aVUNKN_REGION:240
p2149
aa(lp2150
(lp2151
VUNKN_REGION:4645
p2152
aVUNKN_REGION:240
p2153
aaa(lp2154
(lp2155
VUNKN_REGION:4645
p2156
aVUNKN_REGION:240
p2157
aaasS'nifext_113'
p2158
(lp2159
(lp2160
VUNKN_REGION:4645
p2161
aVUNKN_REGION:240
p2162
aVHBP_MORPHOLOGY:0000056
p2163
aa(lp2164
(lp2165
VUNKN_REGION:4645
p2166
aVUNKN_REGION:240
p2167
aVHBP_MORPHOLOGY:0000056
p2168
aaa(lp2169
(lp2170
VUNKN_REGION:4645
p2171
aVUNKN_REGION:240
p2172
aVHBP_MORPHOLOGY:0000056
p2173
aaasS'nifext_112'
p2174
(lp2175
(lp2176
VUNKN_REGION:4645
p2177
aVUNKN_REGION:240
p2178
aasS'nifext_115'
p2179
(lp2180
(lp2181
VUNKN_REGION:4645
p2182
aS'Missing:proprioception intersegmental'
p2183
aasS'nifext_114'
p2184
(lp2185
(lp2186
VUNKN_REGION:4645
p2187
aVUNKN_REGION:240
p2188
aa(lp2189
(lp2190
VUNKN_REGION:4645
p2191
aVUNKN_REGION:240
p2192
aaa(lp2193
(lp2194
VUNKN_REGION:4645
p2195
aVUNKN_REGION:240
p2196
aaasS'nifext_116'
p2197
(lp2198
(lp2199
S'Function:Olfactory'
p2200
aS'Missing:epithelium main'
p2201
aS'Function:sensory'
p2202
aa(lp2203
(lp2204
S'Function:Olfactory'
p2205
aS'Missing:epithelium main'
p2206
aS'Function:sensory'
p2207
aaa(lp2208
(lp2209
S'Function:Olfactory'
p2210
aS'Missing:epithelium main'
p2211
aS'Function:sensory'
p2212
aaasS'nifext_119'
p2213
(lp2214
(lp2215
S'Function:Olfactory'
p2216
aS'Missing:epithelium main supporting'
p2217
aa(lp2218
(lp2219
S'Function:Olfactory'
p2220
aS'Missing:epithelium main supporting'
p2221
aaa(lp2222
(lp2223
S'Function:Olfactory'
p2224
aS'Missing:epithelium main supporting'
p2225
aaa(lp2226
(lp2227
S'Function:Olfactory'
p2228
aS'Missing:epithelium main supporting'
p2229
aaasS'nifext_118'
p2230
(lp2231
(lp2232
VUNKN_REGION:4715
p2233
aS'Orientation:horizontal'
p2234
aVHBP_MORPHOLOGY:0000027
p2235
aa(lp2236
(lp2237
VUNKN_REGION:4715
p2238
aS'Orientation:horizontal'
p2239
aVHBP_MORPHOLOGY:0000027
p2240
aaa(lp2241
(lp2242
VUNKN_REGION:4715
p2243
aS'Orientation:horizontal'
p2244
aVHBP_MORPHOLOGY:0000027
p2245
aaasS'nlx_148419'
p2246
(lp2247
(lp2248
a(lp2249
(lp2250
aasS'nlx_146580'
p2251
(lp2252
(lp2253
asS'nlx_cell_20090501'
p2254
(lp2255
(lp2256
S'Function:Neuroendocrine'
p2257
aS'Function:motor'
p2258
aVHBP_MORPHOLOGY:0000062
p2259
aS'Function:neurosecretory'
p2260
aa(lp2261
(lp2262
S'Function:Neuroendocrine'
p2263
aS'Function:motor'
p2264
aVHBP_MORPHOLOGY:0000062
p2265
aS'Function:neurosecretory'
p2266
aaa(lp2267
(lp2268
S'Function:Neuroendocrine'
p2269
aS'Function:motor'
p2270
aVHBP_MORPHOLOGY:0000062
p2271
aS'Function:neurosecretory'
p2272
aaa(lp2273
(lp2274
S'Function:Neuroendocrine'
p2275
aS'Function:motor'
p2276
aVHBP_MORPHOLOGY:0000062
p2277
aS'Function:neurosecretory'
p2278
aaasS'nlx_148119'
p2279
(lp2280
(lp2281
a(lp2282
(lp2283
aasS'sao910084726'
p2284
(lp2285
(lp2286
VABA_REGION:315
p2287
aVHBP_MORPHOLOGY:0000004
p2288
aS'Missing:double'
p2289
aa(lp2290
(lp2291
VABA_REGION:315
p2292
aVHBP_MORPHOLOGY:0000004
p2293
aS'Missing:double'
p2294
aaasS'nlx_84773'
p2295
(lp2296
(lp2297
VABA_REGION:1097
p2298
aVNCBI_GENE:18429
p2299
aS'Function:neuroendocrine'
p2300
aVHBP_MORPHOLOGY:0000062
p2301
aasS'nlx_152083'
p2302
(lp2303
(lp2304
VUNKN_REGION:7297
p2305
aVUNKN_REGION:45
p2306
aS'Function:inhibitory'
p2307
aasS'nlx_146904'
p2308
(lp2309
(lp2310
asS'nlx_148509'
p2311
(lp2312
(lp2313
S'Function:Gustatory'
p2314
aS'Function:receptor'
p2315
aVUNKN_REGION:895
p2316
aasS'nlx_148508'
p2317
(lp2318
(lp2319
S'Function:Gustatory'
p2320
aS'Function:receptor'
p2321
aVABA_REGION:953
p2322
aasS'nlx_148505'
p2323
(lp2324
(lp2325
S'Function:Gustatory'
p2326
aS'Function:receptor'
p2327
aasS'nlx_38336'
p2328
(lp2329
(lp2330
VUNKN_REGION:2584
p2331
aS'Function:motor'
p2332
aasS'nlx_148507'
p2333
(lp2334
(lp2335
S'Function:Gustatory'
p2336
aS'Function:receptor'
p2337
aVUNKN_REGION:7
p2338
aasS'nlx_148506'
p2339
(lp2340
(lp2341
S'Function:Gustatory'
p2342
aS'Function:receptor'
p2343
aVUNKN_REGION:7262
p2344
aasS'nlx_147368'
p2345
(lp2346
(lp2347
VHBP_MORPHOLOGY:0000028
p2348
aS'Missing:fiber system'
p2349
aa(lp2350
(lp2351
VHBP_MORPHOLOGY:0000028
p2352
aS'Missing:fiber system'
p2353
aaasS'nlx_146762'
p2354
(lp2355
(lp2356
asS'nlx_146761'
p2357
(lp2358
(lp2359
asS'nlx_146760'
p2360
(lp2361
(lp2362
asS'nlx_146767'
p2363
(lp2364
(lp2365
asS'nlx_146766'
p2366
(lp2367
(lp2368
asS'nlx_146765'
p2369
(lp2370
(lp2371
asS'nlx_146764'
p2372
(lp2373
(lp2374
asS'nlx_146769'
p2375
(lp2376
(lp2377
asS'nlx_147363'
p2378
(lp2379
(lp2380
asS'nlx_147364'
p2381
(lp2382
(lp2383
asS'nlx_147365'
p2384
(lp2385
(lp2386
asS'nlx_147367'
p2387
(lp2388
(lp2389
S'Size:Small'
p2390
aS'Missing:field'
p2391
aasS'nlx_148073'
p2392
(lp2393
(lp2394
VUNKN_REGION:20
p2395
aS'Function:olfactory'
p2396
aS'Function:receptor'
p2397
aa(lp2398
(lp2399
VUNKN_REGION:20
p2400
aS'Function:olfactory'
p2401
aS'Function:receptor'
p2402
aaasS'nlx_148072'
p2403
(lp2404
(lp2405
asS'nlx_cell_20081202'
p2406
(lp2407
(lp2408
VABA_REGION:607
p2409
aVUNKN_REGION:7
p2410
aS'Missing:)'
p2411
aVHBP_MORPHOLOGY:0000035
p2412
aasS'nlx_cell_20081203'
p2413
(lp2414
(lp2415
VABA_REGION:549
p2416
aVUNKN_REGION:15
p2417
aS'Missing:)'
p2418
aS'Function:principal'
p2419
aa(lp2420
(lp2421
VABA_REGION:549
p2422
aVUNKN_REGION:15
p2423
aS'Missing:)'
p2424
aS'Function:principal'
p2425
aaa(lp2426
(lp2427
VABA_REGION:549
p2428
aVUNKN_REGION:15
p2429
aS'Missing:)'
p2430
aS'Function:principal'
p2431
aaa(lp2432
(lp2433
VABA_REGION:549
p2434
aVUNKN_REGION:15
p2435
aS'Missing:)'
p2436
aS'Function:principal'
p2437
aaa(lp2438
(lp2439
VABA_REGION:549
p2440
aVUNKN_REGION:15
p2441
aS'Missing:)'
p2442
aS'Function:principal'
p2443
aaa(lp2444
(lp2445
VABA_REGION:549
p2446
aVUNKN_REGION:15
p2447
aS'Missing:)'
p2448
aS'Function:principal'
p2449
aaa(lp2450
(lp2451
VABA_REGION:549
p2452
aVUNKN_REGION:15
p2453
aS'Missing:)'
p2454
aS'Function:principal'
p2455
aaasS'nlx_cell_20081201'
p2456
(lp2457
(lp2458
VABA_REGION:607
p2459
aVUNKN_REGION:7
p2460
aS'Missing:)'
p2461
aVHBP_MORPHOLOGY:0000075
p2462
aVHBP_MORPHOLOGY:0000072
p2463
aa(lp2464
(lp2465
VABA_REGION:607
p2466
aVUNKN_REGION:7
p2467
aS'Missing:)'
p2468
aVHBP_MORPHOLOGY:0000075
p2469
aVHBP_MORPHOLOGY:0000072
p2470
aaa(lp2471
(lp2472
VABA_REGION:607
p2473
aVUNKN_REGION:7
p2474
aS'Missing:)'
p2475
aVHBP_MORPHOLOGY:0000075
p2476
aVHBP_MORPHOLOGY:0000072
p2477
aaa(lp2478
(lp2479
VABA_REGION:607
p2480
aVUNKN_REGION:7
p2481
aS'Missing:)'
p2482
aVHBP_MORPHOLOGY:0000075
p2483
aVHBP_MORPHOLOGY:0000072
p2484
aaasS'nlx_cell_20081206'
p2485
(lp2486
(lp2487
VABA_REGION:315
p2488
aVHBP_MORPHOLOGY:0000008
p2489
aa(lp2490
(lp2491
VABA_REGION:315
p2492
aVHBP_MORPHOLOGY:0000008
p2493
aaasS'nlx_147164'
p2494
(lp2495
(lp2496
VUNKN_REGION:7300
p2497
aS'Missing:fascicle'
p2498
aasS'nlx_151577'
p2499
(lp2500
(lp2501
asS'nlx_143585'
p2502
(lp2503
(lp2504
VUNKN_REGION:4645
p2505
aS'Missing:border'
p2506
aa(lp2507
(lp2508
VUNKN_REGION:4645
p2509
aS'Missing:border'
p2510
aaa(lp2511
(lp2512
VUNKN_REGION:4645
p2513
aS'Missing:border'
p2514
aaasS'nlx_148431'
p2515
(lp2516
(lp2517
a(lp2518
(lp2519
aasS'nlx_148430'
p2520
(lp2521
(lp2522
a(lp2523
(lp2524
aasS'nlx_148433'
p2525
(lp2526
(lp2527
VHBP_EPHYS:0000001
p2528
aa(lp2529
(lp2530
VHBP_EPHYS:0000001
p2531
aaasS'nlx_148432'
p2532
(lp2533
(lp2534
VHBP_EPHYS:0000001
p2535
aa(lp2536
(lp2537
VHBP_EPHYS:0000001
p2538
aaasS'nlx_157255'
p2539
(lp2540
(lp2541
VABA_REGION:315
p2542
aVUNKN_REGION:34
p2543
aVUNKN_REGION:7263
p2544
aS'Missing:Area'
p2545
aVHBP_LAYER:0000001
p2546
aVNCBI_GENE:19293
p2547
aa(lp2548
(lp2549
VABA_REGION:315
p2550
aVUNKN_REGION:34
p2551
aVUNKN_REGION:7263
p2552
aS'Missing:Area'
p2553
aVHBP_LAYER:0000001
p2554
aVNCBI_GENE:19293
p2555
aaa(lp2556
(lp2557
VABA_REGION:315
p2558
aVUNKN_REGION:34
p2559
aVUNKN_REGION:7263
p2560
aS'Missing:Area'
p2561
aVHBP_LAYER:0000001
p2562
aVNCBI_GENE:19293
p2563
aaa(lp2564
(lp2565
VABA_REGION:315
p2566
aVUNKN_REGION:34
p2567
aVUNKN_REGION:7263
p2568
aS'Missing:Area'
p2569
aVHBP_LAYER:0000001
p2570
aVNCBI_GENE:19293
p2571
aaasS'nlx_144269'
p2572
(lp2573
(lp2574
VUNKN_REGION:575
p2575
aS'Missing:Off-Upsilon'
p2576
aVHBP_MORPHOLOGY:0000058
p2577
aa(lp2578
(lp2579
VUNKN_REGION:575
p2580
aS'Missing:Off-Upsilon'
p2581
aVHBP_MORPHOLOGY:0000058
p2582
aaasS'nlx_148206'
p2583
(lp2584
(lp2585
VUNKN_REGION:15
p2586
aS'Missing:fan-shaped'
p2587
aasS'nlx_148207'
p2588
(lp2589
(lp2590
VUNKN_REGION:15
p2591
aS'Missing:fan-shaped'
p2592
aasS'nlx_148204'
p2593
(lp2594
(lp2595
VUNKN_REGION:15
p2596
aS'Missing:fan-shaped'
p2597
aasS'nlx_148205'
p2598
(lp2599
(lp2600
VUNKN_REGION:15
p2601
aS'Missing:fan-shaped'
p2602
aasS'nlx_148208'
p2603
(lp2604
(lp2605
VUNKN_REGION:15
p2606
aS'Missing:fan-shaped'
p2607
aasS'nlx_148209'
p2608
(lp2609
(lp2610
VUNKN_REGION:15
p2611
aS'Missing:fan-shaped'
p2612
aasS'nlx_146710'
p2613
(lp2614
(lp2615
asS'nlx_151986'
p2616
(lp2617
(lp2618
VHBP_MORPHOLOGY:0000058
p2619
aasS'nlx_cell_20090202'
p2620
(lp2621
(lp2622
VABA_REGION:147
p2623
aS'Missing:NA'
p2624
aa(lp2625
(lp2626
VABA_REGION:147
p2627
aS'Missing:NA'
p2628
aaasS'nlx_cell_20090203'
p2629
(lp2630
(lp2631
VHBP_NEUROTRANSMITTER:0000005
p2632
aa(lp2633
(lp2634
VHBP_NEUROTRANSMITTER:0000005
p2635
aaa(lp2636
(lp2637
VHBP_NEUROTRANSMITTER:0000005
p2638
aaa(lp2639
(lp2640
VHBP_NEUROTRANSMITTER:0000005
p2641
aaasS'nlx_148999'
p2642
(lp2643
(lp2644
a(lp2645
(lp2646
aasS'nlx_148992'
p2647
(lp2648
(lp2649
a(lp2650
(lp2651
aasS'nlx_148991'
p2652
(lp2653
(lp2654
a(lp2655
(lp2656
aasS'nlx_148997'
p2657
(lp2658
(lp2659
S'Size:large'
p2660
aS'Orientation:descending'
p2661
aS'Missing:DN tachykinin'
p2662
aa(lp2663
(lp2664
S'Size:large'
p2665
aS'Orientation:descending'
p2666
aS'Missing:DN tachykinin'
p2667
aaasS'nlx_148994'
p2668
(lp2669
(lp2670
VUNKN_REGION:7262
p2671
aVUNKN_REGION:7299
p2672
aVUNKN_REGION:15
p2673
aa(lp2674
(lp2675
VUNKN_REGION:7262
p2676
aVUNKN_REGION:7299
p2677
aVUNKN_REGION:15
p2678
aaasS'nlx_148995'
p2679
(lp2680
(lp2681
VUNKN_REGION:23
p2682
aVUNKN_REGION:46
p2683
aS'Function:neurosecretory'
p2684
aa(lp2685
(lp2686
VUNKN_REGION:23
p2687
aVUNKN_REGION:46
p2688
aS'Function:neurosecretory'
p2689
aaasS'nlx_35220'
p2690
(lp2691
(lp2692
VABA_REGION:375
p2693
aVABA_REGION:382
p2694
aS'Missing:ivy'
p2695
aa(lp2696
(lp2697
VABA_REGION:375
p2698
aVABA_REGION:382
p2699
aS'Missing:ivy'
p2700
aaa(lp2701
(lp2702
VABA_REGION:375
p2703
aVABA_REGION:382
p2704
aS'Missing:ivy'
p2705
aaasS'nlx_151801'
p2706
(lp2707
(lp2708
VUNKN_REGION:7270
p2709
aS'Missing:type 2'
p2710
aVHBP_MORPHOLOGY:0000054
p2711
aasS'nlx_148059'
p2712
(lp2713
(lp2714
a(lp2715
(lp2716
aasS'BAMSC1048'
p2717
(lp2718
(lp2719
VUNKN_REGION:575
p2720
aVHBP_MORPHOLOGY:0000058
p2721
aa(lp2722
(lp2723
VUNKN_REGION:575
p2724
aVHBP_MORPHOLOGY:0000058
p2725
aaasS'BAMSC1049'
p2726
(lp2727
(lp2728
VUNKN_REGION:575
p2729
aVHBP_MORPHOLOGY:0000058
p2730
aa(lp2731
(lp2732
VUNKN_REGION:575
p2733
aVHBP_MORPHOLOGY:0000058
p2734
aaasS'nlx_148727'
p2735
(lp2736
(lp2737
VUNKN_REGION:23
p2738
aS'Function:olfactory'
p2739
aS'Function:receptor'
p2740
aa(lp2741
(lp2742
VUNKN_REGION:23
p2743
aS'Function:olfactory'
p2744
aS'Function:receptor'
p2745
aaasS'nifext_109'
p2746
(lp2747
(lp2748
VUNKN_REGION:4645
p2749
aS'Missing:intermediate horn'
p2750
aS'Function:motor'
p2751
aVUNKN_REGION:88
p2752
aa(lp2753
(lp2754
VUNKN_REGION:4645
p2755
aS'Missing:intermediate horn'
p2756
aS'Function:motor'
p2757
aVUNKN_REGION:88
p2758
aaa(lp2759
(lp2760
VUNKN_REGION:4645
p2761
aS'Missing:intermediate horn'
p2762
aS'Function:motor'
p2763
aVUNKN_REGION:88
p2764
aaasS'nlx_148488'
p2765
(lp2766
(lp2767
VHBP_LAYER:0000003
p2768
aVHBP_LAYER:0000003
p2769
aasS'nifext_76'
p2770
(lp2771
(lp2772
VABA_REGION:607
p2773
aVUNKN_REGION:7262
p2774
aS'Missing:)'
p2775
aVHBP_MORPHOLOGY:0000024
p2776
aa(lp2777
(lp2778
VABA_REGION:607
p2779
aVUNKN_REGION:7262
p2780
aS'Missing:)'
p2781
aVHBP_MORPHOLOGY:0000024
p2782
aaasS'nifext_75'
p2783
(lp2784
(lp2785
VABA_REGION:607
p2786
aVUNKN_REGION:7262
p2787
aS'Missing:)'
p2788
aS'Size:giant'
p2789
aa(lp2790
(lp2791
VABA_REGION:607
p2792
aVUNKN_REGION:7262
p2793
aS'Missing:)'
p2794
aS'Size:giant'
p2795
aaasS'nifext_74'
p2796
(lp2797
(lp2798
VABA_REGION:607
p2799
aVUNKN_REGION:7262
p2800
aS'Missing:)'
p2801
aVHBP_MORPHOLOGY:0000001
p2802
aa(lp2803
(lp2804
VABA_REGION:607
p2805
aVUNKN_REGION:7262
p2806
aS'Missing:)'
p2807
aVHBP_MORPHOLOGY:0000001
p2808
aaa(lp2809
(lp2810
VABA_REGION:607
p2811
aVUNKN_REGION:7262
p2812
aS'Missing:)'
p2813
aVHBP_MORPHOLOGY:0000001
p2814
aaasS'nlx_148484'
p2815
(lp2816
(lp2817
VUNKN_REGION:7262
p2818
aasS'nifext_79'
p2819
(lp2820
(lp2821
VABA_REGION:841
p2822
aVUNKN_REGION:14
p2823
aS'Missing:nucleus'
p2824
aS'Function:principal'
p2825
aa(lp2826
(lp2827
VABA_REGION:841
p2828
aVUNKN_REGION:14
p2829
aS'Missing:nucleus'
p2830
aS'Function:principal'
p2831
aaa(lp2832
(lp2833
VABA_REGION:841
p2834
aVUNKN_REGION:14
p2835
aS'Missing:nucleus'
p2836
aS'Function:principal'
p2837
aaasS'nifext_78'
p2838
(lp2839
(lp2840
VABA_REGION:841
p2841
aS'Function:principal'
p2842
aa(lp2843
(lp2844
VABA_REGION:841
p2845
aS'Function:principal'
p2846
aaasS'nlx_148729'
p2847
(lp2848
(lp2849
VUNKN_REGION:23
p2850
aS'Function:olfactory'
p2851
aS'Function:receptor'
p2852
aa(lp2853
(lp2854
VUNKN_REGION:23
p2855
aS'Function:olfactory'
p2856
aS'Function:receptor'
p2857
aaasS'nlx_148728'
p2858
(lp2859
(lp2860
VUNKN_REGION:23
p2861
aS'Function:olfactory'
p2862
aS'Function:receptor'
p2863
aa(lp2864
(lp2865
VUNKN_REGION:23
p2866
aS'Function:olfactory'
p2867
aS'Function:receptor'
p2868
aaasS'nlx_148482'
p2869
(lp2870
(lp2871
VUNKN_REGION:7299
p2872
aS'Missing:crossvein campaniform sensillum'
p2873
aa(lp2874
(lp2875
VUNKN_REGION:7299
p2876
aS'Missing:crossvein campaniform sensillum'
p2877
aaasS'nlx_148483'
p2878
(lp2879
(lp2880
asS'nlx_cell_091203'
p2881
(lp2882
(lp2883
VABA_REGION:726
p2884
aS'Missing:IS-I'
p2885
aa(lp2886
(lp2887
VABA_REGION:726
p2888
aS'Missing:IS-I'
p2889
aaasS'nlx_cell_091202'
p2890
(lp2891
(lp2892
VABA_REGION:507
p2893
aS'Missing:(main)'
p2894
aVUNKN_REGION:7281
p2895
aa(lp2896
(lp2897
VABA_REGION:507
p2898
aS'Missing:(main)'
p2899
aVUNKN_REGION:7281
p2900
aaa(lp2901
(lp2902
VABA_REGION:507
p2903
aS'Missing:(main)'
p2904
aVUNKN_REGION:7281
p2905
aaasS'nlx_cell_091201'
p2906
(lp2907
(lp2908
VABA_REGION:726
p2909
aS'Missing:HIPP'
p2910
aasS'nlx_cell_091207'
p2911
(lp2912
(lp2913
VABA_REGION:375
p2914
aVUNKN_REGION:7284
p2915
aVHBP_MORPHOLOGY:0000019
p2916
aa(lp2917
(lp2918
VABA_REGION:375
p2919
aVUNKN_REGION:7284
p2920
aVHBP_MORPHOLOGY:0000019
p2921
aaasS'nlx_cell_091206'
p2922
(lp2923
(lp2924
VABA_REGION:375
p2925
aVABA_REGION:382
p2926
aS'Missing:oriens lacunosum moleculare'
p2927
aa(lp2928
(lp2929
VABA_REGION:375
p2930
aVABA_REGION:382
p2931
aS'Missing:oriens lacunosum moleculare'
p2932
aaasS'nlx_cell_091205'
p2933
(lp2934
(lp2935
VABA_REGION:375
p2936
aVABA_REGION:382
p2937
aVHBP_MORPHOLOGY:0000019
p2938
aa(lp2939
(lp2940
VABA_REGION:375
p2941
aVABA_REGION:382
p2942
aVHBP_MORPHOLOGY:0000019
p2943
aaasS'nlx_cell_100209'
p2944
(lp2945
(lp2946
VABA_REGION:375
p2947
aVABA_REGION:382
p2948
aS'Missing:IS-I'
p2949
aa(lp2950
(lp2951
VABA_REGION:375
p2952
aVABA_REGION:382
p2953
aS'Missing:IS-I'
p2954
aaasS'nlx_cell_100206'
p2955
(lp2956
(lp2957
VUNKN_REGION:4645
p2958
aVUNKN_REGION:240
p2959
aa(lp2960
(lp2961
VUNKN_REGION:4645
p2962
aVUNKN_REGION:240
p2963
aaasS'nlx_cell_100207'
p2964
(lp2965
(lp2966
VUNKN_REGION:4645
p2967
aVUNKN_REGION:240
p2968
aa(lp2969
(lp2970
VUNKN_REGION:4645
p2971
aVUNKN_REGION:240
p2972
aaasS'nlx_cell_091209'
p2973
(lp2974
(lp2975
VABA_REGION:375
p2976
aVUNKN_REGION:7284
p2977
aVHBP_MORPHOLOGY:0000065
p2978
aa(lp2979
(lp2980
VABA_REGION:375
p2981
aVUNKN_REGION:7284
p2982
aVHBP_MORPHOLOGY:0000065
p2983
aaasS'nlx_cell_091208'
p2984
(lp2985
(lp2986
VABA_REGION:375
p2987
aVUNKN_REGION:7284
p2988
aVHBP_MORPHOLOGY:0000019
p2989
aS'Size:narrow'
p2990
aa(lp2991
(lp2992
VABA_REGION:375
p2993
aVUNKN_REGION:7284
p2994
aVHBP_MORPHOLOGY:0000019
p2995
aS'Size:narrow'
p2996
aaasS'nlx_cell_100201'
p2997
(lp2998
(lp2999
VABA_REGION:726
p3000
aVHBP_MORPHOLOGY:0000019
p3001
aa(lp3002
(lp3003
VABA_REGION:726
p3004
aVHBP_MORPHOLOGY:0000019
p3005
aaasS'nifext_99'
p3006
(lp3007
(lp3008
asS'nifext_98'
p3009
(lp3010
(lp3011
asS'nifext_159'
p3012
(lp3013
(lp3014
VABA_REGION:502
p3015
aVHBP_MORPHOLOGY:0000001
p3016
aa(lp3017
(lp3018
VABA_REGION:502
p3019
aVHBP_MORPHOLOGY:0000001
p3020
aaasS'nifext_155'
p3021
(lp3022
(lp3023
VABA_REGION:754
p3024
aS'Missing:Islets of Calleja'
p3025
aVHBP_NEUROTRANSMITTER:0000007
p3026
aa(lp3027
(lp3028
VABA_REGION:754
p3029
aS'Missing:Islets of Calleja'
p3030
aVHBP_NEUROTRANSMITTER:0000007
p3031
aaa(lp3032
(lp3033
VABA_REGION:754
p3034
aS'Missing:Islets of Calleja'
p3035
aVHBP_NEUROTRANSMITTER:0000007
p3036
aaa(lp3037
(lp3038
VABA_REGION:754
p3039
aS'Missing:Islets of Calleja'
p3040
aVHBP_NEUROTRANSMITTER:0000007
p3041
aaasS'nifext_154'
p3042
(lp3043
(lp3044
VABA_REGION:754
p3045
aS'Missing:Islets of Calleja'
p3046
aVHBP_NEUROTRANSMITTER:0000003
p3047
aa(lp3048
(lp3049
VABA_REGION:754
p3050
aS'Missing:Islets of Calleja'
p3051
aVHBP_NEUROTRANSMITTER:0000003
p3052
aaa(lp3053
(lp3054
VABA_REGION:754
p3055
aS'Missing:Islets of Calleja'
p3056
aVHBP_NEUROTRANSMITTER:0000003
p3057
aaa(lp3058
(lp3059
VABA_REGION:754
p3060
aS'Missing:Islets of Calleja'
p3061
aVHBP_NEUROTRANSMITTER:0000003
p3062
aaasS'nifext_93'
p3063
(lp3064
(lp3065
a(lp3066
(lp3067
aasS'nifext_92'
p3068
(lp3069
(lp3070
a(lp3071
(lp3072
aasS'nlx_147830'
p3073
(lp3074
(lp3075
asS'nifext_150'
p3076
(lp3077
(lp3078
VABA_REGION:803
p3079
aVHBP_EPHYS:0000040
p3080
aasS'nifext_97'
p3081
(lp3082
(lp3083
VUNKN_REGION:8
p3084
aS'Missing:nucleus'
p3085
aVHBP_EPHYS:0000040
p3086
aa(lp3087
(lp3088
VUNKN_REGION:8
p3089
aS'Missing:nucleus'
p3090
aVHBP_EPHYS:0000040
p3091
aaasS'nifext_152'
p3092
(lp3093
(lp3094
VABA_REGION:278
p3095
aVUNKN_REGION:24
p3096
aS'Missing:nuclear complex'
p3097
aVHBP_MORPHOLOGY:0000001
p3098
aa(lp3099
(lp3100
VABA_REGION:278
p3101
aVUNKN_REGION:24
p3102
aS'Missing:nuclear complex'
p3103
aVHBP_MORPHOLOGY:0000001
p3104
aaa(lp3105
(lp3106
VABA_REGION:278
p3107
aVUNKN_REGION:24
p3108
aS'Missing:nuclear complex'
p3109
aVHBP_MORPHOLOGY:0000001
p3110
aaasS'nlx_147400'
p3111
(lp3112
(lp3113
VHBP_EPHYS:0000040
p3114
aS'Missing:pb'
p3115
aS'Missing:pb'
p3116
aasS'nlx_12926'
p3117
(lp3118
(lp3119
VABA_REGION:549
p3120
aVABA_REGION:475
p3121
aS'Size:small'
p3122
aa(lp3123
(lp3124
VABA_REGION:549
p3125
aVABA_REGION:475
p3126
aS'Size:small'
p3127
aaa(lp3128
(lp3129
VABA_REGION:549
p3130
aVABA_REGION:475
p3131
aS'Size:small'
p3132
aaasS'nlx_147815'
p3133
(lp3134
(lp3135
VHBP_MORPHOLOGY:0000045
p3136
aasS'sao1366775348'
p3137
(lp3138
(lp3139
VHBP_MORPHOLOGY:0000058
p3140
aa(lp3141
(lp3142
VHBP_MORPHOLOGY:0000058
p3143
aaasS'nifext_52'
p3144
(lp3145
(lp3146
VABA_REGION:315
p3147
aVHBP_MORPHOLOGY:0000013
p3148
aa(lp3149
(lp3150
VABA_REGION:315
p3151
aVHBP_MORPHOLOGY:0000013
p3152
aaa(lp3153
(lp3154
VABA_REGION:315
p3155
aVHBP_MORPHOLOGY:0000013
p3156
aaa(lp3157
(lp3158
VABA_REGION:315
p3159
aVHBP_MORPHOLOGY:0000013
p3160
aaasS'nlx_147793'
p3161
(lp3162
(lp3163
VUNKN_REGION:7
p3164
aVUNKN_REGION:98
p3165
aS'Function:neurosecretory'
p3166
aasS'sao830368389'
p3167
(lp3168
(lp3169
VABA_REGION:375
p3170
aVABA_REGION:382
p3171
aVHBP_MORPHOLOGY:0000001
p3172
aa(lp3173
(lp3174
VABA_REGION:375
p3175
aVABA_REGION:382
p3176
aVHBP_MORPHOLOGY:0000001
p3177
aaa(lp3178
(lp3179
VABA_REGION:375
p3180
aVABA_REGION:382
p3181
aVHBP_MORPHOLOGY:0000001
p3182
aaa(lp3183
(lp3184
VABA_REGION:375
p3185
aVABA_REGION:382
p3186
aVHBP_MORPHOLOGY:0000001
p3187
aaasS'nlx_146563'
p3188
(lp3189
(lp3190
asS'nlx_146718'
p3191
(lp3192
(lp3193
VUNKN_REGION:7299
p3194
aS'Missing:fascicle'
p3195
aS'Function:sensory'
p3196
aasS'nlx_149090'
p3197
(lp3198
(lp3199
VABA_REGION:278
p3200
aVUNKN_REGION:24
p3201
aS'Missing:nuclear complex'
p3202
aVHBP_MORPHOLOGY:0000002
p3203
aVNCBI_GENE:19293
p3204
aVHBP_MORPHOLOGY:0000019
p3205
aasS'nlx_149091'
p3206
(lp3207
(lp3208
VABA_REGION:278
p3209
aVUNKN_REGION:24
p3210
aS'Missing:nuclear complex'
p3211
aVHBP_MORPHOLOGY:0000002
p3212
aVNCBI_GENE:19293
p3213
aVHBP_MORPHOLOGY:0000007
p3214
aa(lp3215
(lp3216
VABA_REGION:278
p3217
aVUNKN_REGION:24
p3218
aS'Missing:nuclear complex'
p3219
aVHBP_MORPHOLOGY:0000002
p3220
aVNCBI_GENE:19293
p3221
aVHBP_MORPHOLOGY:0000007
p3222
aaasS'nlx_149093'
p3223
(lp3224
(lp3225
VABA_REGION:278
p3226
aVUNKN_REGION:24
p3227
aS'Missing:nuclear complex'
p3228
aVHBP_MORPHOLOGY:0000002
p3229
aVNCBI_GENE:20604
p3230
aasS'nlx_149094'
p3231
(lp3232
(lp3233
VABA_REGION:278
p3234
aVUNKN_REGION:15
p3235
aS'Function:central'
p3236
aS'Missing:nucleus'
p3237
aS'Size:medium'
p3238
aVHBP_MORPHOLOGY:0000011
p3239
aasS'nlx_149095'
p3240
(lp3241
(lp3242
VABA_REGION:278
p3243
aS'Missing:intercalated nuclei'
p3244
aS'Size:small'
p3245
aVHBP_MORPHOLOGY:0000011
p3246
aa(lp3247
(lp3248
VABA_REGION:278
p3249
aS'Missing:intercalated nuclei'
p3250
aS'Size:small'
p3251
aVHBP_MORPHOLOGY:0000011
p3252
aaasS'nlx_146729'
p3253
(lp3254
(lp3255
VNCBI_GENE:13346
p3256
aasS'nlx_146728'
p3257
(lp3258
(lp3259
VNCBI_GENE:13346
p3260
aS'Missing:3+1'
p3261
aasS'nlx_146727'
p3262
(lp3263
(lp3264
VNCBI_GENE:13346
p3265
aS'Missing:3'
p3266
aasS'nlx_146725'
p3267
(lp3268
(lp3269
VNCBI_GENE:13346
p3270
aS'Missing:1'
p3271
aasS'nlx_146724'
p3272
(lp3273
(lp3274
asS'nlx_146723'
p3275
(lp3276
(lp3277
VNCBI_GENE:13346
p3278
aS'Missing:E'
p3279
aasS'nlx_146722'
p3280
(lp3281
(lp3282
VNCBI_GENE:13346
p3283
aS'Missing:D'
p3284
aasS'nlx_146721'
p3285
(lp3286
(lp3287
VNCBI_GENE:13346
p3288
aS'Missing:C'
p3289
aasS'nlx_146720'
p3290
(lp3291
(lp3292
VNCBI_GENE:13346
p3293
aS'Missing:B'
p3294
aasS'nlx_cell_20090727'
p3295
(lp3296
(lp3297
VABA_REGION:726
p3298
aVUNKN_REGION:7278
p3299
aasS'nlx_148439'
p3300
(lp3301
(lp3302
a(lp3303
(lp3304
aasS'nlx_146719'
p3305
(lp3306
(lp3307
VNCBI_GENE:13346
p3308
aS'Missing:A'
p3309
aasS'nifext_89'
p3310
(lp3311
(lp3312
a(lp3313
(lp3314
aasS'sao471801888'
p3315
(lp3316
(lp3317
VABA_REGION:512
p3318
aVHBP_MORPHOLOGY:0000036
p3319
aa(lp3320
(lp3321
VABA_REGION:512
p3322
aVHBP_MORPHOLOGY:0000036
p3323
aaa(lp3324
(lp3325
VABA_REGION:512
p3326
aVHBP_MORPHOLOGY:0000036
p3327
aaa(lp3328
(lp3329
VABA_REGION:512
p3330
aVHBP_MORPHOLOGY:0000036
p3331
aaa(lp3332
(lp3333
VABA_REGION:512
p3334
aVHBP_MORPHOLOGY:0000036
p3335
aaa(lp3336
(lp3337
VABA_REGION:512
p3338
aVHBP_MORPHOLOGY:0000036
p3339
aaa(lp3340
(lp3341
VABA_REGION:512
p3342
aVHBP_MORPHOLOGY:0000036
p3343
aaa(lp3344
(lp3345
VABA_REGION:512
p3346
aVHBP_MORPHOLOGY:0000036
p3347
aaasS'nifext_49'
p3348
(lp3349
(lp3350
VABA_REGION:315
p3351
aVHBP_MORPHOLOGY:0000001
p3352
aVHBP_LAYER:0000111
p3353
aa(lp3354
(lp3355
VABA_REGION:315
p3356
aVHBP_MORPHOLOGY:0000001
p3357
aVHBP_LAYER:0000111
p3358
aaa(lp3359
(lp3360
VABA_REGION:315
p3361
aVHBP_MORPHOLOGY:0000001
p3362
aVHBP_LAYER:0000111
p3363
aaa(lp3364
(lp3365
VABA_REGION:315
p3366
aVHBP_MORPHOLOGY:0000001
p3367
aVHBP_LAYER:0000111
p3368
aaa(lp3369
(lp3370
VABA_REGION:315
p3371
aVHBP_MORPHOLOGY:0000001
p3372
aVHBP_LAYER:0000111
p3373
aaa(lp3374
(lp3375
VABA_REGION:315
p3376
aVHBP_MORPHOLOGY:0000001
p3377
aVHBP_LAYER:0000111
p3378
aaa(lp3379
(lp3380
VABA_REGION:315
p3381
aVHBP_MORPHOLOGY:0000001
p3382
aVHBP_LAYER:0000111
p3383
aaa(lp3384
(lp3385
VABA_REGION:315
p3386
aVHBP_MORPHOLOGY:0000001
p3387
aVHBP_LAYER:0000111
p3388
aaasS'nlx_152139'
p3389
(lp3390
(lp3391
VABA_REGION:315
p3392
aVABA_REGION:985
p3393
aVHBP_MORPHOLOGY:0000001
p3394
aVHBP_LAYER:0000005
p3395
aVABA_REGION:1003
p3396
aS'Missing:-tectal'
p3397
aasS'nlx_81310'
p3398
(lp3399
(lp3400
VABA_REGION:375
p3401
aVABA_REGION:382
p3402
aS'Species:LM'
p3403
aa(lp3404
(lp3405
VABA_REGION:375
p3406
aVABA_REGION:382
p3407
aS'Species:LM'
p3408
aaa(lp3409
(lp3410
VABA_REGION:375
p3411
aVABA_REGION:382
p3412
aS'Species:LM'
p3413
aaa(lp3414
(lp3415
VABA_REGION:375
p3416
aVABA_REGION:382
p3417
aS'Species:LM'
p3418
aaasS'nlx_147433'
p3419
(lp3420
(lp3421
VUNKN_REGION:115
p3422
aS'Missing:lobe'
p3423
aasS'nlx_50129'
p3424
(lp3425
(lp3426
VABA_REGION:661
p3427
aS'Function:motor'
p3428
aa(lp3429
(lp3430
VABA_REGION:661
p3431
aS'Function:motor'
p3432
aaa(lp3433
(lp3434
VABA_REGION:661
p3435
aS'Function:motor'
p3436
aaa(lp3437
(lp3438
VABA_REGION:661
p3439
aS'Function:motor'
p3440
aaasS'nlx_157282'
p3441
(lp3442
(lp3443
VABA_REGION:315
p3444
aVUNKN_REGION:34
p3445
aVUNKN_REGION:7263
p3446
aS'Missing:Area'
p3447
aVHBP_LAYER:0000005
p3448
aVNCBI_GENE:19293
p3449
aa(lp3450
(lp3451
VABA_REGION:315
p3452
aVUNKN_REGION:34
p3453
aVUNKN_REGION:7263
p3454
aS'Missing:Area'
p3455
aVHBP_LAYER:0000005
p3456
aVNCBI_GENE:19293
p3457
aaa(lp3458
(lp3459
VABA_REGION:315
p3460
aVUNKN_REGION:34
p3461
aVUNKN_REGION:7263
p3462
aS'Missing:Area'
p3463
aVHBP_LAYER:0000005
p3464
aVNCBI_GENE:19293
p3465
aaa(lp3466
(lp3467
VABA_REGION:315
p3468
aVUNKN_REGION:34
p3469
aVUNKN_REGION:7263
p3470
aS'Missing:Area'
p3471
aVHBP_LAYER:0000005
p3472
aVNCBI_GENE:19293
p3473
aaasS'nlx_148474'
p3474
(lp3475
(lp3476
VHBP_MORPHOLOGY:0000045
p3477
aa(lp3478
(lp3479
VHBP_MORPHOLOGY:0000045
p3480
aaasS'nlx_148477'
p3481
(lp3482
(lp3483
asS'nlx_148476'
p3484
(lp3485
(lp3486
asS'nlx_148574'
p3487
(lp3488
(lp3489
a(lp3490
(lp3491
aasS'nlx_148575'
p3492
(lp3493
(lp3494
VUNKN_REGION:81
p3495
aasS'nlx_148576'
p3496
(lp3497
(lp3498
a(lp3499
(lp3500
aasS'nlx_146759'
p3501
(lp3502
(lp3503
asS'nlx_148571'
p3504
(lp3505
(lp3506
VUNKN_REGION:7299
p3507
aVUNKN_REGION:7310
p3508
aVUNKN_REGION:14
p3509
aa(lp3510
(lp3511
VUNKN_REGION:7299
p3512
aVUNKN_REGION:7310
p3513
aVUNKN_REGION:14
p3514
aaasS'nlx_149009'
p3515
(lp3516
(lp3517
VHBP_DEVELOPMENTAL:0000007
p3518
aa(lp3519
(lp3520
VHBP_DEVELOPMENTAL:0000007
p3521
aaasS'nlx_148249'
p3522
(lp3523
(lp3524
S'Orientation:Horizontal'
p3525
aVHBP_MORPHOLOGY:0000027
p3526
aS'Missing:fiber system'
p3527
aS'Missing:fiber system'
p3528
aasS'nlx_148246'
p3529
(lp3530
(lp3531
S'Orientation:Horizontal'
p3532
aVHBP_MORPHOLOGY:0000027
p3533
aS'Missing:fiber system'
p3534
aS'Missing:fiber system'
p3535
aasS'nlx_149006'
p3536
(lp3537
(lp3538
VHBP_DEVELOPMENTAL:0000007
p3539
aVUNKN_REGION:115
p3540
aS'Missing:lobe OL tachykinin'
p3541
aa(lp3542
(lp3543
VHBP_DEVELOPMENTAL:0000007
p3544
aVUNKN_REGION:115
p3545
aS'Missing:lobe OL tachykinin'
p3546
aaasS'nlx_148244'
p3547
(lp3548
(lp3549
S'Orientation:Horizontal'
p3550
aVHBP_MORPHOLOGY:0000027
p3551
aS'Missing:fiber system'
p3552
aS'Missing:fiber system'
p3553
aasS'nlx_149004'
p3554
(lp3555
(lp3556
VHBP_DEVELOPMENTAL:0000007
p3557
aS'Missing:protocerebral MPP tachykinin'
p3558
aa(lp3559
(lp3560
VHBP_DEVELOPMENTAL:0000007
p3561
aS'Missing:protocerebral MPP tachykinin'
p3562
aaasS'nlx_149003'
p3563
(lp3564
(lp3565
VHBP_DEVELOPMENTAL:0000007
p3566
aa(lp3567
(lp3568
VHBP_DEVELOPMENTAL:0000007
p3569
aaasS'nlx_149002'
p3570
(lp3571
(lp3572
VHBP_DEVELOPMENTAL:0000007
p3573
aa(lp3574
(lp3575
VHBP_DEVELOPMENTAL:0000007
p3576
aaasS'nlx_148240'
p3577
(lp3578
(lp3579
VHBP_MORPHOLOGY:0000028
p3580
aS'Missing:fiber system'
p3581
aasS'nlx_148241'
p3582
(lp3583
(lp3584
VHBP_MORPHOLOGY:0000028
p3585
aS'Missing:fiber system'
p3586
aasS'nlx_36209'
p3587
(lp3588
(lp3589
VABA_REGION:909
p3590
aVHBP_LAYER:0000002
p3591
aVHBP_MORPHOLOGY:0000013
p3592
aasS'nlx_147332'
p3593
(lp3594
(lp3595
S'Function:sensory'
p3596
aasS'nlx_147337'
p3597
(lp3598
(lp3599
S'Function:sensory'
p3600
aasS'nlx_157283'
p3601
(lp3602
(lp3603
VABA_REGION:315
p3604
aVUNKN_REGION:34
p3605
aVUNKN_REGION:7263
p3606
aS'Missing:Area'
p3607
aVHBP_LAYER:0000006
p3608
aVNCBI_GENE:19293
p3609
aa(lp3610
(lp3611
VABA_REGION:315
p3612
aVUNKN_REGION:34
p3613
aVUNKN_REGION:7263
p3614
aS'Missing:Area'
p3615
aVHBP_LAYER:0000006
p3616
aVNCBI_GENE:19293
p3617
aaa(lp3618
(lp3619
VABA_REGION:315
p3620
aVUNKN_REGION:34
p3621
aVUNKN_REGION:7263
p3622
aS'Missing:Area'
p3623
aVHBP_LAYER:0000006
p3624
aVNCBI_GENE:19293
p3625
aaa(lp3626
(lp3627
VABA_REGION:315
p3628
aVUNKN_REGION:34
p3629
aVUNKN_REGION:7263
p3630
aS'Missing:Area'
p3631
aVHBP_LAYER:0000006
p3632
aVNCBI_GENE:19293
p3633
aaasS'nlx_148080'
p3634
(lp3635
(lp3636
asS'nlx_148083'
p3637
(lp3638
(lp3639
VHBP_NEUROTRANSMITTER:0000009
p3640
aasS'nlx_148084'
p3641
(lp3642
(lp3643
asS'nlx_149005'
p3644
(lp3645
(lp3646
VHBP_DEVELOPMENTAL:0000007
p3647
aS'Missing:deuterocerebrum DC tachykinin'
p3648
aa(lp3649
(lp3650
VHBP_DEVELOPMENTAL:0000007
p3651
aS'Missing:deuterocerebrum DC tachykinin'
p3652
aaasS'nlx_157280'
p3653
(lp3654
(lp3655
VABA_REGION:315
p3656
aVUNKN_REGION:34
p3657
aVUNKN_REGION:7263
p3658
aS'Missing:Area'
p3659
aVHBP_LAYER:0000003
p3660
aVNCBI_GENE:19293
p3661
aa(lp3662
(lp3663
VABA_REGION:315
p3664
aVUNKN_REGION:34
p3665
aVUNKN_REGION:7263
p3666
aS'Missing:Area'
p3667
aVHBP_LAYER:0000003
p3668
aVNCBI_GENE:19293
p3669
aaa(lp3670
(lp3671
VABA_REGION:315
p3672
aVUNKN_REGION:34
p3673
aVUNKN_REGION:7263
p3674
aS'Missing:Area'
p3675
aVHBP_LAYER:0000003
p3676
aVNCBI_GENE:19293
p3677
aaa(lp3678
(lp3679
VABA_REGION:315
p3680
aVUNKN_REGION:34
p3681
aVUNKN_REGION:7263
p3682
aS'Missing:Area'
p3683
aVHBP_LAYER:0000003
p3684
aVNCBI_GENE:19293
p3685
aaasS'sao1866881837'
p3686
(lp3687
(lp3688
VABA_REGION:672
p3689
aVHBP_NEUROTRANSMITTER:0000005
p3690
aa(lp3691
(lp3692
VABA_REGION:672
p3693
aVHBP_NEUROTRANSMITTER:0000005
p3694
aaa(lp3695
(lp3696
VABA_REGION:672
p3697
aVHBP_NEUROTRANSMITTER:0000005
p3698
aaa(lp3699
(lp3700
VABA_REGION:672
p3701
aVHBP_NEUROTRANSMITTER:0000005
p3702
aaa(lp3703
(lp3704
VABA_REGION:672
p3705
aVHBP_NEUROTRANSMITTER:0000005
p3706
aaa(lp3707
(lp3708
VABA_REGION:672
p3709
aVHBP_NEUROTRANSMITTER:0000005
p3710
aaa(lp3711
(lp3712
VABA_REGION:672
p3713
aVHBP_NEUROTRANSMITTER:0000005
p3714
aaa(lp3715
(lp3716
VABA_REGION:672
p3717
aVHBP_NEUROTRANSMITTER:0000005
p3718
aaa(lp3719
(lp3720
VABA_REGION:672
p3721
aVHBP_NEUROTRANSMITTER:0000005
p3722
aaasS'nlx_143534,nifext_102'
p3723
(lp3724
(lp3725
VABA_REGION:553
p3726
aasS'nlx_148451'
p3727
(lp3728
(lp3729
asS'nlx_152226'
p3730
(lp3731
(lp3732
VABA_REGION:315
p3733
aVABA_REGION:385
p3734
aVHBP_MORPHOLOGY:0000001
p3735
aVHBP_LAYER:0000111
p3736
aasS'nlx_149074'
p3737
(lp3738
(lp3739
VHBP_NEUROTRANSMITTER:0000015
p3740
aS'Missing:3'
p3741
aasS'nlx_148236'
p3742
(lp3743
(lp3744
VHBP_MORPHOLOGY:0000028
p3745
aS'Missing:fiber system'
p3746
aasS'nlx_147905'
p3747
(lp3748
(lp3749
asS'nlx_147906'
p3750
(lp3751
(lp3752
asS'nlx_147907'
p3753
(lp3754
(lp3755
asS'nlx_147908'
p3756
(lp3757
(lp3758
asS'nlx_147909'
p3759
(lp3760
(lp3761
S'Function:Olfactory'
p3762
aS'Function:receptor'
p3763
aa(lp3764
(lp3765
S'Function:Olfactory'
p3766
aS'Function:receptor'
p3767
aaasS'nlx_148234'
p3768
(lp3769
(lp3770
VHBP_MORPHOLOGY:0000028
p3771
aS'Missing:fiber system'
p3772
aasS'nlx_152140'
p3773
(lp3774
(lp3775
VABA_REGION:315
p3776
aVABA_REGION:985
p3777
aVHBP_MORPHOLOGY:0000001
p3778
aVHBP_LAYER:0000005
p3779
aS'Missing:corticostriate'
p3780
aa(lp3781
(lp3782
VABA_REGION:315
p3783
aVABA_REGION:985
p3784
aVHBP_MORPHOLOGY:0000001
p3785
aVHBP_LAYER:0000005
p3786
aS'Missing:corticostriate'
p3787
aaasS'nlx_146763'
p3788
(lp3789
(lp3790
asS'nlx_147751'
p3791
(lp3792
(lp3793
asS'nlx_147750'
p3794
(lp3795
(lp3796
asS'nlx_148190'
p3797
(lp3798
(lp3799
S'Size:Large'
p3800
aS'Missing:field'
p3801
aS'Missing:field'
p3802
aS'Function:central'
p3803
aasS'nlx_147752'
p3804
(lp3805
(lp3806
VHBP_DEVELOPMENTAL:0000007
p3807
aS'Missing:labial'
p3808
aS'Function:motor'
p3809
aasS'nlx_147755'
p3810
(lp3811
(lp3812
a(lp3813
(lp3814
aasS'nlx_148459'
p3815
(lp3816
(lp3817
VHBP_DEVELOPMENTAL:0000007
p3818
aasS'nlx_147756'
p3819
(lp3820
(lp3821
asS'nlx_148511'
p3822
(lp3823
(lp3824
VUNKN_REGION:7
p3825
aS'Missing:cibarial sense organ'
p3826
aasS'nlx_148725'
p3827
(lp3828
(lp3829
VUNKN_REGION:23
p3830
aS'Function:olfactory'
p3831
aS'Function:receptor'
p3832
aa(lp3833
(lp3834
VUNKN_REGION:23
p3835
aS'Function:olfactory'
p3836
aS'Function:receptor'
p3837
aaasS'nlx_147699'
p3838
(lp3839
(lp3840
VHBP_EPHYS:0000040
p3841
aa(lp3842
(lp3843
VHBP_EPHYS:0000040
p3844
aaasS'nifext_20'
p3845
(lp3846
(lp3847
VUNKN_REGION:575
p3848
aS'Size:medium'
p3849
aS'Missing:simple'
p3850
aVHBP_MORPHOLOGY:0000058
p3851
aa(lp3852
(lp3853
VUNKN_REGION:575
p3854
aS'Size:medium'
p3855
aS'Missing:simple'
p3856
aVHBP_MORPHOLOGY:0000058
p3857
aaa(lp3858
(lp3859
VUNKN_REGION:575
p3860
aS'Size:medium'
p3861
aS'Missing:simple'
p3862
aVHBP_MORPHOLOGY:0000058
p3863
aaasS'nifext_21'
p3864
(lp3865
(lp3866
VUNKN_REGION:575
p3867
aS'Size:small'
p3868
aS'Missing:complex'
p3869
aVHBP_MORPHOLOGY:0000058
p3870
aa(lp3871
(lp3872
VUNKN_REGION:575
p3873
aS'Size:small'
p3874
aS'Missing:complex'
p3875
aVHBP_MORPHOLOGY:0000058
p3876
aaa(lp3877
(lp3878
VUNKN_REGION:575
p3879
aS'Size:small'
p3880
aS'Missing:complex'
p3881
aVHBP_MORPHOLOGY:0000058
p3882
aaasS'nifext_22'
p3883
(lp3884
(lp3885
VUNKN_REGION:575
p3886
aS'Size:small'
p3887
aS'Missing:simple'
p3888
aVHBP_MORPHOLOGY:0000058
p3889
aa(lp3890
(lp3891
VUNKN_REGION:575
p3892
aS'Size:small'
p3893
aS'Missing:simple'
p3894
aVHBP_MORPHOLOGY:0000058
p3895
aaa(lp3896
(lp3897
VUNKN_REGION:575
p3898
aS'Size:small'
p3899
aS'Missing:simple'
p3900
aVHBP_MORPHOLOGY:0000058
p3901
aaasS'nlx_38713'
p3902
(lp3903
(lp3904
VUNKN_REGION:4645
p3905
aS'Function:motor'
p3906
aVUNKN_REGION:76
p3907
aasS'nifext_27'
p3908
(lp3909
(lp3910
VUNKN_REGION:575
p3911
aVHBP_MORPHOLOGY:0000045
p3912
aS'Missing:M'
p3913
aVHBP_MORPHOLOGY:0000047
p3914
aa(lp3915
(lp3916
VUNKN_REGION:575
p3917
aVHBP_MORPHOLOGY:0000045
p3918
aS'Missing:M'
p3919
aVHBP_MORPHOLOGY:0000047
p3920
aaa(lp3921
(lp3922
VUNKN_REGION:575
p3923
aVHBP_MORPHOLOGY:0000045
p3924
aS'Missing:M'
p3925
aVHBP_MORPHOLOGY:0000047
p3926
aaasS'BAMSC1071'
p3927
(lp3928
(lp3929
VUNKN_REGION:575
p3930
aS'Missing:wide-field'
p3931
aVHBP_MORPHOLOGY:0000065
p3932
aVHBP_MORPHOLOGY:0000044
p3933
aa(lp3934
(lp3935
VUNKN_REGION:575
p3936
aS'Missing:wide-field'
p3937
aVHBP_MORPHOLOGY:0000065
p3938
aVHBP_MORPHOLOGY:0000044
p3939
aaasS'BAMSC1070'
p3940
(lp3941
(lp3942
VUNKN_REGION:575
p3943
aS'Size:narrow'
p3944
aS'Missing:-field'
p3945
aVHBP_MORPHOLOGY:0000065
p3946
aVHBP_MORPHOLOGY:0000044
p3947
aa(lp3948
(lp3949
VUNKN_REGION:575
p3950
aS'Size:narrow'
p3951
aS'Missing:-field'
p3952
aVHBP_MORPHOLOGY:0000065
p3953
aVHBP_MORPHOLOGY:0000044
p3954
aaasS'nlx_152096'
p3955
(lp3956
(lp3957
VUNKN_REGION:7287
p3958
aS'Missing:C'
p3959
aS'Function:nociceptive'
p3960
aasS'nlx_152097'
p3961
(lp3962
(lp3963
VUNKN_REGION:7287
p3964
aS'Missing:A delta'
p3965
aS'Function:nociceptive'
p3966
aasS'nlx_152098'
p3967
(lp3968
(lp3969
VUNKN_REGION:7287
p3970
aS'Function:nociceptive'
p3971
aasS'nlx_152099'
p3972
(lp3973
(lp3974
VUNKN_REGION:7287
p3975
aS'Function:nociceptive'
p3976
aasS'nlx_147754'
p3977
(lp3978
(lp3979
asS'nlx_48604'
p3980
(lp3981
(lp3982
VABA_REGION:1048
p3983
aS'Size:giant'
p3984
aasS'nlx_60485'
p3985
(lp3986
(lp3987
VABA_REGION:1
p3988
aS'Size:medium'
p3989
aVHBP_NEUROTRANSMITTER:0000009
p3990
aasS'sao1415726815'
p3991
(lp3992
(lp3993
VABA_REGION:512
p3994
aVHBP_MORPHOLOGY:0000040
p3995
aa(lp3996
(lp3997
VABA_REGION:512
p3998
aVHBP_MORPHOLOGY:0000040
p3999
aaa(lp4000
(lp4001
VABA_REGION:512
p4002
aVHBP_MORPHOLOGY:0000040
p4003
aaasS'nlx_143938'
p4004
(lp4005
(lp4006
VABA_REGION:315
p4007
aS'Function:primary'
p4008
aS'Function:visual'
p4009
aVHBP_LAYER:0000005
p4010
aVABA_REGION:1003
p4011
aS'Missing:/tectal'
p4012
aVHBP_MORPHOLOGY:0000001
p4013
aasS'nlx_156739'
p4014
(lp4015
(lp4016
VABA_REGION:315
p4017
aVUNKN_REGION:34
p4018
aVUNKN_REGION:7263
p4019
aS'Missing:area'
p4020
aVHBP_LAYER:0000002
p4021
aVNCBI_GENE:12307
p4022
aa(lp4023
(lp4024
VABA_REGION:315
p4025
aVUNKN_REGION:34
p4026
aVUNKN_REGION:7263
p4027
aS'Missing:area'
p4028
aVHBP_LAYER:0000002
p4029
aVNCBI_GENE:12307
p4030
aaa(lp4031
(lp4032
VABA_REGION:315
p4033
aVUNKN_REGION:34
p4034
aVUNKN_REGION:7263
p4035
aS'Missing:area'
p4036
aVHBP_LAYER:0000002
p4037
aVNCBI_GENE:12307
p4038
aaa(lp4039
(lp4040
VABA_REGION:315
p4041
aVUNKN_REGION:34
p4042
aVUNKN_REGION:7263
p4043
aS'Missing:area'
p4044
aVHBP_LAYER:0000002
p4045
aVNCBI_GENE:12307
p4046
aaasS'nifext_121'
p4047
(lp4048
(lp4049
VABA_REGION:507
p4050
aS'Missing:(main)'
p4051
aVHBP_MORPHOLOGY:0000031
p4052
aa(lp4053
(lp4054
VABA_REGION:507
p4055
aS'Missing:(main)'
p4056
aVHBP_MORPHOLOGY:0000031
p4057
aaasS'nifext_122'
p4058
(lp4059
(lp4060
VABA_REGION:507
p4061
aS'Missing:(accessory)'
p4062
aVUNKN_REGION:1097
p4063
aa(lp4064
(lp4065
VABA_REGION:507
p4066
aS'Missing:(accessory)'
p4067
aVUNKN_REGION:1097
p4068
aaa(lp4069
(lp4070
VABA_REGION:507
p4071
aS'Missing:(accessory)'
p4072
aVUNKN_REGION:1097
p4073
aaasS'nifext_123'
p4074
(lp4075
(lp4076
VABA_REGION:507
p4077
aS'Missing:(main)'
p4078
aVHBP_MORPHOLOGY:0000026
p4079
aa(lp4080
(lp4081
VABA_REGION:507
p4082
aS'Missing:(main)'
p4083
aVHBP_MORPHOLOGY:0000026
p4084
aaa(lp4085
(lp4086
VABA_REGION:507
p4087
aS'Missing:(main)'
p4088
aVHBP_MORPHOLOGY:0000026
p4089
aaasS'nlx_146579'
p4090
(lp4091
(lp4092
asS'nifext_128'
p4093
(lp4094
(lp4095
VABA_REGION:512
p4096
aVHBP_MORPHOLOGY:0000026
p4097
aa(lp4098
(lp4099
VABA_REGION:512
p4100
aVHBP_MORPHOLOGY:0000026
p4101
aaa(lp4102
(lp4103
VABA_REGION:512
p4104
aVHBP_MORPHOLOGY:0000026
p4105
aaasS'nlx_148109'
p4106
(lp4107
(lp4108
asS'nlx_148108'
p4109
(lp4110
(lp4111
VUNKN_REGION:45
p4112
aasS'nlx_53276'
p4113
(lp4114
(lp4115
VABA_REGION:135
p4116
aS'Function:motor'
p4117
aasS'nlx_148101'
p4118
(lp4119
(lp4120
asS'nlx_148100'
p4121
(lp4122
(lp4123
asS'BAMSC1125'
p4124
(lp4125
(lp4126
VUNKN_REGION:4677
p4127
aS'Missing:wide field'
p4128
aVHBP_MORPHOLOGY:0000028
p4129
aa(lp4130
(lp4131
VUNKN_REGION:4677
p4132
aS'Missing:wide field'
p4133
aVHBP_MORPHOLOGY:0000028
p4134
aaasS'nlx_148520'
p4135
(lp4136
(lp4137
asS'nlx_148105'
p4138
(lp4139
(lp4140
asS'nlx_148107'
p4141
(lp4142
(lp4143
S'Function:motor'
p4144
aa(lp4145
(lp4146
S'Function:motor'
p4147
aaasS'nlx_146879'
p4148
(lp4149
(lp4150
VUNKN_REGION:7300
p4151
aS'Missing:fascicle'
p4152
aasS'nlx_148530'
p4153
(lp4154
(lp4155
asS'nlx_148533'
p4156
(lp4157
(lp4158
S'Size:Small'
p4159
aVHBP_DEVELOPMENTAL:0000007
p4160
aS'Missing:Pdf'
p4161
aasS'nlx_148534'
p4162
(lp4163
(lp4164
S'Size:Large'
p4165
aVHBP_DEVELOPMENTAL:0000007
p4166
aS'Missing:Pdf'
p4167
aasS'nlx_148535'
p4168
(lp4169
(lp4170
asS'nlx_148536'
p4171
(lp4172
(lp4173
asS'nlx_148537'
p4174
(lp4175
(lp4176
asS'nlx_148538'
p4177
(lp4178
(lp4179
asS'nlx_148539'
p4180
(lp4181
(lp4182
asS'nlx_147485'
p4183
(lp4184
(lp4185
asS'nlx_146714'
p4186
(lp4187
(lp4188
asS'nlx_146715'
p4189
(lp4190
(lp4191
asS'nlx_146712'
p4192
(lp4193
(lp4194
asS'nlx_147700'
p4195
(lp4196
(lp4197
VUNKN_REGION:43
p4198
aVHBP_EPHYS:0000040
p4199
aasS'sao429277527'
p4200
(lp4201
(lp4202
S'Function:inner'
p4203
aVHBP_MORPHOLOGY:0000054
p4204
aa(lp4205
(lp4206
S'Function:inner'
p4207
aVHBP_MORPHOLOGY:0000054
p4208
aaa(lp4209
(lp4210
S'Function:inner'
p4211
aVHBP_MORPHOLOGY:0000054
p4212
aaa(lp4213
(lp4214
S'Function:inner'
p4215
aVHBP_MORPHOLOGY:0000054
p4216
aaasS'nlx_147378'
p4217
(lp4218
(lp4219
asS'nlx_147377'
p4220
(lp4221
(lp4222
a(lp4223
(lp4224
aasS'nlx_147376'
p4225
(lp4226
(lp4227
asS'nlx_147375'
p4228
(lp4229
(lp4230
asS'nlx_147374'
p4231
(lp4232
(lp4233
asS'nlx_147373'
p4234
(lp4235
(lp4236
a(lp4237
(lp4238
aasS'nlx_147372'
p4239
(lp4240
(lp4241
a(lp4242
(lp4243
aasS'nlx_147371'
p4244
(lp4245
(lp4246
asS'nlx_146896'
p4247
(lp4248
(lp4249
a(lp4250
(lp4251
aasS'nlx_148044'
p4252
(lp4253
(lp4254
VHBP_MORPHOLOGY:0000045
p4255
aasS'nlx_148045'
p4256
(lp4257
(lp4258
VHBP_MORPHOLOGY:0000045
p4259
aasS'nlx_148046'
p4260
(lp4261
(lp4262
VHBP_MORPHOLOGY:0000045
p4263
aa(lp4264
(lp4265
VHBP_MORPHOLOGY:0000045
p4266
aaasS'sao666951243'
p4267
(lp4268
(lp4269
VABA_REGION:512
p4270
aVHBP_MORPHOLOGY:0000019
p4271
aa(lp4272
(lp4273
VABA_REGION:512
p4274
aVHBP_MORPHOLOGY:0000019
p4275
aaasS'nlx_148043'
p4276
(lp4277
(lp4278
VHBP_NEUROTRANSMITTER:0000003
p4279
aa(lp4280
(lp4281
VHBP_NEUROTRANSMITTER:0000003
p4282
aaasS'nlx_60854'
p4283
(lp4284
(lp4285
VABA_REGION:4
p4286
aa(lp4287
(lp4288
VABA_REGION:4
p4289
aaasS'nlx_147380'
p4290
(lp4291
(lp4292
a(lp4293
(lp4294
aasS'nlx_146756'
p4295
(lp4296
(lp4297
VUNKN_REGION:7300
p4298
aS'Missing:fascicle'
p4299
aS'Function:sensory'
p4300
aasS'nlx_148058'
p4301
(lp4302
(lp4303
a(lp4304
(lp4305
aasS'nlx_27085'
p4306
(lp4307
(lp4308
VABA_REGION:375
p4309
aVABA_REGION:382
p4310
aVHBP_MORPHOLOGY:0000071
p4311
aa(lp4312
(lp4313
VABA_REGION:375
p4314
aVABA_REGION:382
p4315
aVHBP_MORPHOLOGY:0000071
p4316
aaasS'nlx_151562'
p4317
(lp4318
(lp4319
VABA_REGION:83
p4320
aasS'nlx_151565'
p4321
(lp4322
(lp4323
VUNKN_REGION:20
p4324
aS'Species:bee'
p4325
aS'Missing:)'
p4326
aa(lp4327
(lp4328
VUNKN_REGION:20
p4329
aS'Species:bee'
p4330
aS'Missing:)'
p4331
aaasS'nlx_151564'
p4332
(lp4333
(lp4334
VUNKN_REGION:20
p4335
aS'Species:bee'
p4336
aS'Missing:)'
p4337
aS'Function:principal'
p4338
aa(lp4339
(lp4340
VUNKN_REGION:20
p4341
aS'Species:bee'
p4342
aS'Missing:)'
p4343
aS'Function:principal'
p4344
aaasS'nlx_147828'
p4345
(lp4346
(lp4347
S'Function:Motor'
p4348
aasS'nlx_144271'
p4349
(lp4350
(lp4351
VUNKN_REGION:575
p4352
aS'Missing:On-'
p4353
aVHBP_MORPHOLOGY:0000048
p4354
aVHBP_MORPHOLOGY:0000058
p4355
aa(lp4356
(lp4357
VUNKN_REGION:575
p4358
aS'Missing:On-'
p4359
aVHBP_MORPHOLOGY:0000048
p4360
aVHBP_MORPHOLOGY:0000058
p4361
aaa(lp4362
(lp4363
VUNKN_REGION:575
p4364
aS'Missing:On-'
p4365
aVHBP_MORPHOLOGY:0000048
p4366
aVHBP_MORPHOLOGY:0000058
p4367
aaasS'nlx_144277'
p4368
(lp4369
(lp4370
VUNKN_REGION:575
p4371
aS'Size:Giant'
p4372
aS'Missing:-Melanopsin'
p4373
aVHBP_MORPHOLOGY:0000058
p4374
aa(lp4375
(lp4376
VUNKN_REGION:575
p4377
aS'Size:Giant'
p4378
aS'Missing:-Melanopsin'
p4379
aVHBP_MORPHOLOGY:0000058
p4380
aaasS'nlx_144276'
p4381
(lp4382
(lp4383
VUNKN_REGION:575
p4384
aVHBP_MORPHOLOGY:0000049
p4385
aVHBP_MORPHOLOGY:0000058
p4386
aa(lp4387
(lp4388
VUNKN_REGION:575
p4389
aVHBP_MORPHOLOGY:0000049
p4390
aVHBP_MORPHOLOGY:0000058
p4391
aaa(lp4392
(lp4393
VUNKN_REGION:575
p4394
aVHBP_MORPHOLOGY:0000049
p4395
aVHBP_MORPHOLOGY:0000058
p4396
aaasS'nlx_144275'
p4397
(lp4398
(lp4399
VUNKN_REGION:575
p4400
aS'Missing:Off-'
p4401
aVHBP_MORPHOLOGY:0000048
p4402
aVHBP_MORPHOLOGY:0000058
p4403
aa(lp4404
(lp4405
VUNKN_REGION:575
p4406
aS'Missing:Off-'
p4407
aVHBP_MORPHOLOGY:0000048
p4408
aVHBP_MORPHOLOGY:0000058
p4409
aaa(lp4410
(lp4411
VUNKN_REGION:575
p4412
aS'Missing:Off-'
p4413
aVHBP_MORPHOLOGY:0000048
p4414
aVHBP_MORPHOLOGY:0000058
p4415
aaasS'nlx_149138'
p4416
(lp4417
(lp4418
VABA_REGION:672
p4419
aVHBP_MORPHOLOGY:0000020
p4420
aasS'nlx_149137'
p4421
(lp4422
(lp4423
VABA_REGION:470
p4424
aS'Function:principal'
p4425
aasS'nlx_149136'
p4426
(lp4427
(lp4428
VABA_REGION:672
p4429
aS'Missing:indirect pathway'
p4430
aVHBP_MORPHOLOGY:0000011
p4431
aa(lp4432
(lp4433
VABA_REGION:672
p4434
aS'Missing:indirect pathway'
p4435
aVHBP_MORPHOLOGY:0000011
p4436
aaa(lp4437
(lp4438
VABA_REGION:672
p4439
aS'Missing:indirect pathway'
p4440
aVHBP_MORPHOLOGY:0000011
p4441
aaa(lp4442
(lp4443
VABA_REGION:672
p4444
aS'Missing:indirect pathway'
p4445
aVHBP_MORPHOLOGY:0000011
p4446
aaa(lp4447
(lp4448
VABA_REGION:672
p4449
aS'Missing:indirect pathway'
p4450
aVHBP_MORPHOLOGY:0000011
p4451
aaa(lp4452
(lp4453
VABA_REGION:672
p4454
aS'Missing:indirect pathway'
p4455
aVHBP_MORPHOLOGY:0000011
p4456
aaasS'nlx_149135'
p4457
(lp4458
(lp4459
VABA_REGION:672
p4460
aS'Missing:direct pathway'
p4461
aVHBP_MORPHOLOGY:0000011
p4462
aa(lp4463
(lp4464
VABA_REGION:672
p4465
aS'Missing:direct pathway'
p4466
aVHBP_MORPHOLOGY:0000011
p4467
aaa(lp4468
(lp4469
VABA_REGION:672
p4470
aS'Missing:direct pathway'
p4471
aVHBP_MORPHOLOGY:0000011
p4472
aaa(lp4473
(lp4474
VABA_REGION:672
p4475
aS'Missing:direct pathway'
p4476
aVHBP_MORPHOLOGY:0000011
p4477
aaa(lp4478
(lp4479
VABA_REGION:672
p4480
aS'Missing:direct pathway'
p4481
aVHBP_MORPHOLOGY:0000011
p4482
aaa(lp4483
(lp4484
VABA_REGION:672
p4485
aS'Missing:direct pathway'
p4486
aVHBP_MORPHOLOGY:0000011
p4487
aaasS'nifext_145'
p4488
(lp4489
(lp4490
VUNKN_REGION:4424
p4491
aVABA_REGION:374
p4492
aVHBP_NEUROTRANSMITTER:0000007
p4493
aa(lp4494
(lp4495
VUNKN_REGION:4424
p4496
aVABA_REGION:374
p4497
aVHBP_NEUROTRANSMITTER:0000007
p4498
aaa(lp4499
(lp4500
VUNKN_REGION:4424
p4501
aVABA_REGION:374
p4502
aVHBP_NEUROTRANSMITTER:0000007
p4503
aaasS'nlx_153867'
p4504
(lp4505
(lp4506
VUNKN_REGION:4715
p4507
aS'Missing:superficial'
p4508
aVHBP_MORPHOLOGY:0000001
p4509
aa(lp4510
(lp4511
VUNKN_REGION:4715
p4512
aS'Missing:superficial'
p4513
aVHBP_MORPHOLOGY:0000001
p4514
aaa(lp4515
(lp4516
VUNKN_REGION:4715
p4517
aS'Missing:superficial'
p4518
aVHBP_MORPHOLOGY:0000001
p4519
aaasS'nlx_148967'
p4520
(lp4521
(lp4522
VUNKN_REGION:7
p4523
aS'Missing:unpaired median'
p4524
aa(lp4525
(lp4526
VUNKN_REGION:7
p4527
aS'Missing:unpaired median'
p4528
aaasS'nifext_19'
p4529
(lp4530
(lp4531
VUNKN_REGION:575
p4532
aS'Size:medium'
p4533
aS'Missing:complex'
p4534
aVHBP_MORPHOLOGY:0000058
p4535
aa(lp4536
(lp4537
VUNKN_REGION:575
p4538
aS'Size:medium'
p4539
aS'Missing:complex'
p4540
aVHBP_MORPHOLOGY:0000058
p4541
aaa(lp4542
(lp4543
VUNKN_REGION:575
p4544
aS'Size:medium'
p4545
aS'Missing:complex'
p4546
aVHBP_MORPHOLOGY:0000058
p4547
aaasS'nlx_148215'
p4548
(lp4549
(lp4550
a(lp4551
(lp4552
aasS'nlx_148214'
p4553
(lp4554
(lp4555
VUNKN_REGION:15
p4556
aasS'nlx_148217'
p4557
(lp4558
(lp4559
VNCBI_GENE:14066
p4560
aa(lp4561
(lp4562
VNCBI_GENE:14066
p4563
aaasS'nlx_152509'
p4564
(lp4565
(lp4566
VUNKN_REGION:50
p4567
aasS'nlx_148219'
p4568
(lp4569
(lp4570
a(lp4571
(lp4572
aasS'nlx_148218'
p4573
(lp4574
(lp4575
a(lp4576
(lp4577
aasS'nlx_146708'
p4578
(lp4579
(lp4580
asS'BAMSC989'
p4581
(lp4582
(lp4583
VABA_REGION:301
p4584
aVHBP_MORPHOLOGY:0000070
p4585
aa(lp4586
(lp4587
VABA_REGION:301
p4588
aVHBP_MORPHOLOGY:0000070
p4589
aaa(lp4590
(lp4591
VABA_REGION:301
p4592
aVHBP_MORPHOLOGY:0000070
p4593
aaasS'sao2128417084'
p4594
(lp4595
(lp4596
VABA_REGION:315
p4597
aVHBP_MORPHOLOGY:0000001
p4598
aa(lp4599
(lp4600
VABA_REGION:315
p4601
aVHBP_MORPHOLOGY:0000001
p4602
aaa(lp4603
(lp4604
VABA_REGION:315
p4605
aVHBP_MORPHOLOGY:0000001
p4606
aaa(lp4607
(lp4608
VABA_REGION:315
p4609
aVHBP_MORPHOLOGY:0000001
p4610
aaa(lp4611
(lp4612
VABA_REGION:315
p4613
aVHBP_MORPHOLOGY:0000001
p4614
aaasS'nlx_148988'
p4615
(lp4616
(lp4617
VHBP_NEUROTRANSMITTER:0000001
p4618
aS'Missing:-abdominal'
p4619
aS'Size:giant'
p4620
aa(lp4621
(lp4622
VHBP_NEUROTRANSMITTER:0000001
p4623
aS'Missing:-abdominal'
p4624
aS'Size:giant'
p4625
aaasS'nlx_cell_1006031'
p4626
(lp4627
(lp4628
VABA_REGION:375
p4629
aVABA_REGION:382
p4630
aVHBP_MORPHOLOGY:0000020
p4631
aa(lp4632
(lp4633
VABA_REGION:375
p4634
aVABA_REGION:382
p4635
aVHBP_MORPHOLOGY:0000020
p4636
aaa(lp4637
(lp4638
VABA_REGION:375
p4639
aVABA_REGION:382
p4640
aVHBP_MORPHOLOGY:0000020
p4641
aaasS'nlx_147719'
p4642
(lp4643
(lp4644
S'Function:Neurosecretory'
p4645
aasS'nifext_72'
p4646
(lp4647
(lp4648
VABA_REGION:607
p4649
aVUNKN_REGION:7
p4650
aS'Missing:)'
p4651
aVHBP_MORPHOLOGY:0000025
p4652
aa(lp4653
(lp4654
VABA_REGION:607
p4655
aVUNKN_REGION:7
p4656
aS'Missing:)'
p4657
aVHBP_MORPHOLOGY:0000025
p4658
aaa(lp4659
(lp4660
VABA_REGION:607
p4661
aVUNKN_REGION:7
p4662
aS'Missing:)'
p4663
aVHBP_MORPHOLOGY:0000025
p4664
aaasS'BAMSC1121'
p4665
(lp4666
(lp4667
VUNKN_REGION:4677
p4668
aS'Missing:intermediate'
p4669
aVHBP_MORPHOLOGY:0000028
p4670
aVHBP_MORPHOLOGY:0000023
p4671
aa(lp4672
(lp4673
VUNKN_REGION:4677
p4674
aS'Missing:intermediate'
p4675
aVHBP_MORPHOLOGY:0000028
p4676
aVHBP_MORPHOLOGY:0000023
p4677
aaasS'nlx_148987'
p4678
(lp4679
(lp4680
VHBP_DEVELOPMENTAL:0000007
p4681
aS'Function:olfactory'
p4682
aS'Function:receptor'
p4683
aa(lp4684
(lp4685
VHBP_DEVELOPMENTAL:0000007
p4686
aS'Function:olfactory'
p4687
aS'Function:receptor'
p4688
aaasS'nlx_148726'
p4689
(lp4690
(lp4691
VUNKN_REGION:23
p4692
aS'Function:olfactory'
p4693
aS'Function:receptor'
p4694
aa(lp4695
(lp4696
VUNKN_REGION:23
p4697
aS'Function:olfactory'
p4698
aS'Function:receptor'
p4699
aaasS'nlx_151709'
p4700
(lp4701
(lp4702
VABA_REGION:315
p4703
aVABA_REGION:985
p4704
aVHBP_MORPHOLOGY:0000001
p4705
aVHBP_LAYER:0000005
p4706
aS'HBP_PROJECTION:22'
p4707
aa(lp4708
(lp4709
VABA_REGION:315
p4710
aVABA_REGION:985
p4711
aVHBP_MORPHOLOGY:0000001
p4712
aVHBP_LAYER:0000005
p4713
aS'HBP_PROJECTION:22'
p4714
aaa(lp4715
(lp4716
VABA_REGION:315
p4717
aVABA_REGION:985
p4718
aVHBP_MORPHOLOGY:0000001
p4719
aVHBP_LAYER:0000005
p4720
aS'HBP_PROJECTION:22'
p4721
aaa(lp4722
(lp4723
VABA_REGION:315
p4724
aVABA_REGION:985
p4725
aVHBP_MORPHOLOGY:0000001
p4726
aVHBP_LAYER:0000005
p4727
aS'HBP_PROJECTION:22'
p4728
aaasS'nlx_151708'
p4729
(lp4730
(lp4731
VABA_REGION:315
p4732
aVABA_REGION:985
p4733
aVHBP_MORPHOLOGY:0000013
p4734
aVHBP_LAYER:0000004
p4735
aasS'BAMSC1127'
p4736
(lp4737
(lp4738
VUNKN_REGION:3295
p4739
aS'Missing:type II'
p4740
aVHBP_MORPHOLOGY:0000058
p4741
aa(lp4742
(lp4743
VUNKN_REGION:3295
p4744
aS'Missing:type II'
p4745
aVHBP_MORPHOLOGY:0000058
p4746
aaasS'nlx_151707'
p4747
(lp4748
(lp4749
VABA_REGION:315
p4750
aVABA_REGION:985
p4751
aVHBP_MORPHOLOGY:0000001
p4752
aVHBP_LAYER:0000111
p4753
aa(lp4754
(lp4755
VABA_REGION:315
p4756
aVABA_REGION:985
p4757
aVHBP_MORPHOLOGY:0000001
p4758
aVHBP_LAYER:0000111
p4759
aaasS'nlx_90278'
p4760
(lp4761
(lp4762
VABA_REGION:773
p4763
aVHBP_NEUROTRANSMITTER:0000003
p4764
aa(lp4765
(lp4766
VABA_REGION:773
p4767
aVHBP_NEUROTRANSMITTER:0000003
p4768
aaasS'nlx_31744'
p4769
(lp4770
(lp4771
a(lp4772
(lp4773
aa(lp4774
(lp4775
aasS'nifext_66'
p4776
(lp4777
(lp4778
VUNKN_REGION:4412
p4779
aa(lp4780
(lp4781
VUNKN_REGION:4412
p4782
aaa(lp4783
(lp4784
VUNKN_REGION:4412
p4785
aaasS'nlx_148490'
p4786
(lp4787
(lp4788
VHBP_LAYER:0000003
p4789
aVHBP_LAYER:0000003
p4790
aasS'BAMSC1131'
p4791
(lp4792
(lp4793
VUNKN_REGION:3295
p4794
aVHBP_MORPHOLOGY:0000013
p4795
aS'Missing:of the zone'
p4796
aS'Missing:of the zone'
p4797
aVHBP_MORPHOLOGY:0000028
p4798
aa(lp4799
(lp4800
VUNKN_REGION:3295
p4801
aVHBP_MORPHOLOGY:0000013
p4802
aS'Missing:of the zone'
p4803
aS'Missing:of the zone'
p4804
aVHBP_MORPHOLOGY:0000028
p4805
aaasS'BAMSC1132'
p4806
(lp4807
(lp4808
VUNKN_REGION:3295
p4809
aVHBP_MORPHOLOGY:0000013
p4810
aS'Missing:of the zone'
p4811
aS'Missing:of the zone'
p4812
aVUNKN_REGION:115
p4813
aa(lp4814
(lp4815
VUNKN_REGION:3295
p4816
aVHBP_MORPHOLOGY:0000013
p4817
aS'Missing:of the zone'
p4818
aS'Missing:of the zone'
p4819
aVUNKN_REGION:115
p4820
aaasS'BAMSC1124'
p4821
(lp4822
(lp4823
VUNKN_REGION:4677
p4824
aS'Orientation:inverted'
p4825
aVHBP_MORPHOLOGY:0000001
p4826
aa(lp4827
(lp4828
VUNKN_REGION:4677
p4829
aS'Orientation:inverted'
p4830
aVHBP_MORPHOLOGY:0000001
p4831
aaasS'nifext_68'
p4832
(lp4833
(lp4834
VABA_REGION:607
p4835
aVUNKN_REGION:7
p4836
aVHBP_MORPHOLOGY:0000035
p4837
aS'Missing:T'
p4838
aa(lp4839
(lp4840
VABA_REGION:607
p4841
aVUNKN_REGION:7
p4842
aVHBP_MORPHOLOGY:0000035
p4843
aS'Missing:T'
p4844
aaa(lp4845
(lp4846
VABA_REGION:607
p4847
aVUNKN_REGION:7
p4848
aVHBP_MORPHOLOGY:0000035
p4849
aS'Missing:T'
p4850
aaa(lp4851
(lp4852
VABA_REGION:607
p4853
aVUNKN_REGION:7
p4854
aVHBP_MORPHOLOGY:0000035
p4855
aS'Missing:T'
p4856
aaa(lp4857
(lp4858
VABA_REGION:607
p4859
aVUNKN_REGION:7
p4860
aVHBP_MORPHOLOGY:0000035
p4861
aS'Missing:T'
p4862
aaa(lp4863
(lp4864
VABA_REGION:607
p4865
aVUNKN_REGION:7
p4866
aVHBP_MORPHOLOGY:0000035
p4867
aS'Missing:T'
p4868
aaasS'nifext_69'
p4869
(lp4870
(lp4871
VABA_REGION:607
p4872
aVUNKN_REGION:7
p4873
aVHBP_MORPHOLOGY:0000035
p4874
aS'Missing:D'
p4875
aa(lp4876
(lp4877
VABA_REGION:607
p4878
aVUNKN_REGION:7
p4879
aVHBP_MORPHOLOGY:0000035
p4880
aS'Missing:D'
p4881
aaa(lp4882
(lp4883
VABA_REGION:607
p4884
aVUNKN_REGION:7
p4885
aVHBP_MORPHOLOGY:0000035
p4886
aS'Missing:D'
p4887
aaa(lp4888
(lp4889
VABA_REGION:607
p4890
aVUNKN_REGION:7
p4891
aVHBP_MORPHOLOGY:0000035
p4892
aS'Missing:D'
p4893
aaa(lp4894
(lp4895
VABA_REGION:607
p4896
aVUNKN_REGION:7
p4897
aVHBP_MORPHOLOGY:0000035
p4898
aS'Missing:D'
p4899
aaa(lp4900
(lp4901
VABA_REGION:607
p4902
aVUNKN_REGION:7
p4903
aVHBP_MORPHOLOGY:0000035
p4904
aS'Missing:D'
p4905
aaa(lp4906
(lp4907
VABA_REGION:607
p4908
aVUNKN_REGION:7
p4909
aVHBP_MORPHOLOGY:0000035
p4910
aS'Missing:D'
p4911
aaasS'nlx_cell_20090305'
p4912
(lp4913
(lp4914
VABA_REGION:749
p4915
aVHBP_NEUROTRANSMITTER:0000007
p4916
aa(lp4917
(lp4918
VABA_REGION:749
p4919
aVHBP_NEUROTRANSMITTER:0000007
p4920
aaa(lp4921
(lp4922
VABA_REGION:749
p4923
aVHBP_NEUROTRANSMITTER:0000007
p4924
aaa(lp4925
(lp4926
VABA_REGION:749
p4927
aVHBP_NEUROTRANSMITTER:0000007
p4928
aaasS'nlx_cell_20090304'
p4929
(lp4930
(lp4931
VABA_REGION:507
p4932
aS'Missing:(accessory)'
p4933
aVHBP_MORPHOLOGY:0000030
p4934
aa(lp4935
(lp4936
VABA_REGION:507
p4937
aS'Missing:(accessory)'
p4938
aVHBP_MORPHOLOGY:0000030
p4939
aaa(lp4940
(lp4941
VABA_REGION:507
p4942
aS'Missing:(accessory)'
p4943
aVHBP_MORPHOLOGY:0000030
p4944
aaasS'nlx_cell_091212'
p4945
(lp4946
(lp4947
VABA_REGION:375
p4948
aVABA_REGION:463
p4949
aVHBP_MORPHOLOGY:0000022
p4950
aa(lp4951
(lp4952
VABA_REGION:375
p4953
aVABA_REGION:463
p4954
aVHBP_MORPHOLOGY:0000022
p4955
aaasS'nlx_cell_091213'
p4956
(lp4957
(lp4958
VABA_REGION:375
p4959
aVABA_REGION:463
p4960
aVHBP_MORPHOLOGY:0000019
p4961
aa(lp4962
(lp4963
VABA_REGION:375
p4964
aVABA_REGION:463
p4965
aVHBP_MORPHOLOGY:0000019
p4966
aaasS'nlx_cell_091214'
p4967
(lp4968
(lp4969
VABA_REGION:375
p4970
aVABA_REGION:463
p4971
aS'Missing:lacunosum moleculare'
p4972
aa(lp4973
(lp4974
VABA_REGION:375
p4975
aVABA_REGION:463
p4976
aS'Missing:lacunosum moleculare'
p4977
aaasS'nlx_cell_091215'
p4978
(lp4979
(lp4980
VABA_REGION:375
p4981
aVABA_REGION:463
p4982
aS'Missing:oriens'
p4983
aa(lp4984
(lp4985
VABA_REGION:375
p4986
aVABA_REGION:463
p4987
aS'Missing:oriens'
p4988
aaa(lp4989
(lp4990
VABA_REGION:375
p4991
aVABA_REGION:463
p4992
aS'Missing:oriens'
p4993
aaa(lp4994
(lp4995
VABA_REGION:375
p4996
aVABA_REGION:463
p4997
aS'Missing:oriens'
p4998
aaa(lp4999
(lp5000
VABA_REGION:375
p5001
aVABA_REGION:463
p5002
aS'Missing:oriens'
p5003
aaa(lp5004
(lp5005
VABA_REGION:375
p5006
aVABA_REGION:463
p5007
aS'Missing:oriens'
p5008
aaasS'nlx_cell_091216'
p5009
(lp5010
(lp5011
VABA_REGION:375
p5012
aVABA_REGION:463
p5013
aS'Missing:oriens lacunosum moleculare'
p5014
aa(lp5015
(lp5016
VABA_REGION:375
p5017
aVABA_REGION:463
p5018
aS'Missing:oriens lacunosum moleculare'
p5019
aaasS'nlx_cell_091217'
p5020
(lp5021
(lp5022
VABA_REGION:375
p5023
aVABA_REGION:463
p5024
aS'Missing:radiatum'
p5025
aa(lp5026
(lp5027
VABA_REGION:375
p5028
aVABA_REGION:463
p5029
aS'Missing:radiatum'
p5030
aaasS'nlx_cell_091218'
p5031
(lp5032
(lp5033
VABA_REGION:375
p5034
aVABA_REGION:463
p5035
aVHBP_MORPHOLOGY:0000011
p5036
aS'Missing:CR'
p5037
aa(lp5038
(lp5039
VABA_REGION:375
p5040
aVABA_REGION:463
p5041
aVHBP_MORPHOLOGY:0000011
p5042
aS'Missing:CR'
p5043
aaa(lp5044
(lp5045
VABA_REGION:375
p5046
aVABA_REGION:463
p5047
aVHBP_MORPHOLOGY:0000011
p5048
aS'Missing:CR'
p5049
aaasS'nlx_148489'
p5050
(lp5051
(lp5052
VHBP_LAYER:0000003
p5053
aVHBP_LAYER:0000003
p5054
aasS'BAMSC1042'
p5055
(lp5056
(lp5057
VABA_REGION:512
p5058
aS'Missing:nucleus reciprocal projections'
p5059
aa(lp5060
(lp5061
VABA_REGION:512
p5062
aS'Missing:nucleus reciprocal projections'
p5063
aaa(lp5064
(lp5065
VABA_REGION:512
p5066
aS'Missing:nucleus reciprocal projections'
p5067
aaasS'nlx_82555'
p5068
(lp5069
(lp5070
VABA_REGION:507
p5071
aS'Missing:main'
p5072
aVHBP_MORPHOLOGY:0000031
p5073
aa(lp5074
(lp5075
VABA_REGION:507
p5076
aS'Missing:main'
p5077
aVHBP_MORPHOLOGY:0000031
p5078
aaa(lp5079
(lp5080
VABA_REGION:507
p5081
aS'Missing:main'
p5082
aVHBP_MORPHOLOGY:0000031
p5083
aaa(lp5084
(lp5085
VABA_REGION:507
p5086
aS'Missing:main'
p5087
aVHBP_MORPHOLOGY:0000031
p5088
aaasS'nlx_146437'
p5089
(lp5090
(lp5091
VHBP_NEUROTRANSMITTER:0000015
p5092
aS'Missing:1'
p5093
aasS'nifext_88'
p5094
(lp5095
(lp5096
a(lp5097
(lp5098
aasS'BAMSC1128'
p5099
(lp5100
(lp5101
VUNKN_REGION:3295
p5102
aS'Missing:type III'
p5103
aVHBP_MORPHOLOGY:0000058
p5104
aa(lp5105
(lp5106
VUNKN_REGION:3295
p5107
aS'Missing:type III'
p5108
aVHBP_MORPHOLOGY:0000058
p5109
aaasS'nifext_82'
p5110
(lp5111
(lp5112
VABA_REGION:4
p5113
aS'Function:principal'
p5114
aa(lp5115
(lp5116
VABA_REGION:4
p5117
aS'Function:principal'
p5118
aaasS'nifext_83'
p5119
(lp5120
(lp5121
VABA_REGION:4
p5122
aVHBP_EPHYS:0000040
p5123
aa(lp5124
(lp5125
VABA_REGION:4
p5126
aVHBP_EPHYS:0000040
p5127
aaasS'nlx_147829'
p5128
(lp5129
(lp5130
S'Function:Sensory'
p5131
aasS'nlx_152138'
p5132
(lp5133
(lp5134
VABA_REGION:315
p5135
aVABA_REGION:985
p5136
aVHBP_MORPHOLOGY:0000001
p5137
aVHBP_LAYER:0000005
p5138
aVUNKN_REGION:61
p5139
aasS'nifext_86'
p5140
(lp5141
(lp5142
asS'nifext_87'
p5143
(lp5144
(lp5145
a(lp5146
(lp5147
aasS'nifext_84'
p5148
(lp5149
(lp5150
VUNKN_REGION:7287
p5151
aS'Function:nociceptive'
p5152
aa(lp5153
(lp5154
VUNKN_REGION:7287
p5155
aS'Function:nociceptive'
p5156
aaa(lp5157
(lp5158
VUNKN_REGION:7287
p5159
aS'Function:nociceptive'
p5160
aaasS'nifext_85'
p5161
(lp5162
(lp5163
VHBP_MORPHOLOGY:0000054
p5164
aS'Missing:follicle'
p5165
aa(lp5166
(lp5167
VHBP_MORPHOLOGY:0000054
p5168
aS'Missing:follicle'
p5169
aaasS'nlx_143973'
p5170
(lp5171
(lp5172
VUNKN_REGION:4645
p5173
aVUNKN_REGION:7226
p5174
aVUNKN_REGION:3371
p5175
aS'Missing:islet'
p5176
aa(lp5177
(lp5178
VUNKN_REGION:4645
p5179
aVUNKN_REGION:7226
p5180
aVUNKN_REGION:3371
p5181
aS'Missing:islet'
p5182
aaa(lp5183
(lp5184
VUNKN_REGION:4645
p5185
aVUNKN_REGION:7226
p5186
aVUNKN_REGION:3371
p5187
aS'Missing:islet'
p5188
aaasS'nlx_143972'
p5189
(lp5190
(lp5191
VUNKN_REGION:4645
p5192
aVUNKN_REGION:7226
p5193
aVUNKN_REGION:3371
p5194
aVHBP_MORPHOLOGY:0000028
p5195
aa(lp5196
(lp5197
VUNKN_REGION:4645
p5198
aVUNKN_REGION:7226
p5199
aVUNKN_REGION:3371
p5200
aVHBP_MORPHOLOGY:0000028
p5201
aaa(lp5202
(lp5203
VUNKN_REGION:4645
p5204
aVUNKN_REGION:7226
p5205
aVUNKN_REGION:3371
p5206
aVHBP_MORPHOLOGY:0000028
p5207
aaasS'nlx_96825'
p5208
(lp5209
(lp5210
VABA_REGION:754
p5211
aS'Missing:Islets of Calleja'
p5212
aVHBP_MORPHOLOGY:0000021
p5213
aasS'BAMSC1047'
p5214
(lp5215
(lp5216
VUNKN_REGION:575
p5217
aVHBP_MORPHOLOGY:0000058
p5218
aa(lp5219
(lp5220
VUNKN_REGION:575
p5221
aVHBP_MORPHOLOGY:0000058
p5222
aaasS'nlx_153843'
p5223
(lp5224
(lp5225
VABA_REGION:607
p5226
aVUNKN_REGION:7262
p5227
aS'Missing:)'
p5228
aVHBP_MORPHOLOGY:0000013
p5229
aasS'nlx_148148'
p5230
(lp5231
(lp5232
asS'nlx_84634'
p5233
(lp5234
(lp5235
VABA_REGION:754
p5236
aS'Missing:Islets of Calleja'
p5237
aS'Size:large'
p5238
aVUNKN_REGION:7278
p5239
aa(lp5240
(lp5241
VABA_REGION:754
p5242
aS'Missing:Islets of Calleja'
p5243
aS'Size:large'
p5244
aVUNKN_REGION:7278
p5245
aaasS'nifext_17'
p5246
(lp5247
(lp5248
VUNKN_REGION:575
p5249
aVHBP_MORPHOLOGY:0000058
p5250
aa(lp5251
(lp5252
VUNKN_REGION:575
p5253
aVHBP_MORPHOLOGY:0000058
p5254
aaa(lp5255
(lp5256
VUNKN_REGION:575
p5257
aVHBP_MORPHOLOGY:0000058
p5258
aaasS'nlx_152047'
p5259
(lp5260
(lp5261
VHBP_MORPHOLOGY:0000058
p5262
aVUNKN_REGION:7299
p5263
aS'Missing:burster'
p5264
aasS'nlx_152046'
p5265
(lp5266
(lp5267
VHBP_MORPHOLOGY:0000058
p5268
aVUNKN_REGION:15
p5269
aVUNKN_REGION:106
p5270
aasS'nlx_152045'
p5271
(lp5272
(lp5273
VHBP_MORPHOLOGY:0000058
p5274
aVUNKN_REGION:106
p5275
aS'Missing:dilator'
p5276
aasS'nlx_152044'
p5277
(lp5278
(lp5279
VHBP_MORPHOLOGY:0000058
p5280
aVUNKN_REGION:15
p5281
aVUNKN_REGION:65
p5282
aasS'nlx_147480'
p5283
(lp5284
(lp5285
a(lp5286
(lp5287
aasS'sao1154704263'
p5288
(lp5289
(lp5290
VUNKN_REGION:4645
p5291
aVUNKN_REGION:240
p5292
aS'Function:motor'
p5293
aa(lp5294
(lp5295
VUNKN_REGION:4645
p5296
aVUNKN_REGION:240
p5297
aS'Function:motor'
p5298
aaa(lp5299
(lp5300
VUNKN_REGION:4645
p5301
aVUNKN_REGION:240
p5302
aS'Function:motor'
p5303
aaa(lp5304
(lp5305
VUNKN_REGION:4645
p5306
aVUNKN_REGION:240
p5307
aS'Function:motor'
p5308
aaasS'nlx_cell_091204'
p5309
(lp5310
(lp5311
VABA_REGION:726
p5312
aS'Missing:IS-II'
p5313
aa(lp5314
(lp5315
VABA_REGION:726
p5316
aS'Missing:IS-II'
p5317
aaasS'nlx_268'
p5318
(lp5319
(lp5320
VABA_REGION:1097
p5321
aVNCBI_GENE:11998
p5322
aS'Function:neuroendocrine'
p5323
aVHBP_MORPHOLOGY:0000062
p5324
aasS'nlx_146443'
p5325
(lp5326
(lp5327
a(lp5328
(lp5329
aasS'nlx_148005'
p5330
(lp5331
(lp5332
VHBP_NEUROTRANSMITTER:0000005
p5333
aasS'nlx_148006'
p5334
(lp5335
(lp5336
S'Function:Olfactory'
p5337
aS'Function:receptor'
p5338
aVUNKN_REGION:7262
p5339
aa(lp5340
(lp5341
S'Function:Olfactory'
p5342
aS'Function:receptor'
p5343
aVUNKN_REGION:7262
p5344
aaasS'nlx_cell_100204'
p5345
(lp5346
(lp5347
VABA_REGION:726
p5348
aVHBP_MORPHOLOGY:0000071
p5349
aasS'nifext_124'
p5350
(lp5351
(lp5352
VABA_REGION:507
p5353
aS'Missing:(main)'
p5354
aVHBP_MORPHOLOGY:0000033
p5355
aa(lp5356
(lp5357
VABA_REGION:507
p5358
aS'Missing:(main)'
p5359
aVHBP_MORPHOLOGY:0000033
p5360
aaa(lp5361
(lp5362
VABA_REGION:507
p5363
aS'Missing:(main)'
p5364
aVHBP_MORPHOLOGY:0000033
p5365
aaa(lp5366
(lp5367
VABA_REGION:507
p5368
aS'Missing:(main)'
p5369
aVHBP_MORPHOLOGY:0000033
p5370
aaasS'nifext_80'
p5371
(lp5372
(lp5373
VABA_REGION:841
p5374
aVHBP_EPHYS:0000040
p5375
aa(lp5376
(lp5377
VABA_REGION:841
p5378
aVHBP_EPHYS:0000040
p5379
aaasS'nlx_cell_100205'
p5380
(lp5381
(lp5382
VUNKN_REGION:4645
p5383
aVUNKN_REGION:240
p5384
aa(lp5385
(lp5386
VUNKN_REGION:4645
p5387
aVUNKN_REGION:240
p5388
aaasS'nlx_156749'
p5389
(lp5390
(lp5391
VABA_REGION:315
p5392
aVUNKN_REGION:34
p5393
aVUNKN_REGION:7263
p5394
aS'Missing:area'
p5395
aVHBP_LAYER:0000003
p5396
aVNCBI_GENE:12307
p5397
aa(lp5398
(lp5399
VABA_REGION:315
p5400
aVUNKN_REGION:34
p5401
aVUNKN_REGION:7263
p5402
aS'Missing:area'
p5403
aVHBP_LAYER:0000003
p5404
aVNCBI_GENE:12307
p5405
aaa(lp5406
(lp5407
VABA_REGION:315
p5408
aVUNKN_REGION:34
p5409
aVUNKN_REGION:7263
p5410
aS'Missing:area'
p5411
aVHBP_LAYER:0000003
p5412
aVNCBI_GENE:12307
p5413
aaa(lp5414
(lp5415
VABA_REGION:315
p5416
aVUNKN_REGION:34
p5417
aVUNKN_REGION:7263
p5418
aS'Missing:area'
p5419
aVHBP_LAYER:0000003
p5420
aVNCBI_GENE:12307
p5421
aaasS'nlx_148421'
p5422
(lp5423
(lp5424
a(lp5425
(lp5426
aasS'nlx_151688'
p5427
(lp5428
(lp5429
VUNKN_REGION:20
p5430
aS'Function:principal'
p5431
aa(lp5432
(lp5433
VUNKN_REGION:20
p5434
aS'Function:principal'
p5435
aaa(lp5436
(lp5437
VUNKN_REGION:20
p5438
aS'Function:principal'
p5439
aaa(lp5440
(lp5441
VUNKN_REGION:20
p5442
aS'Function:principal'
p5443
aaasS'nlx_151689'
p5444
(lp5445
(lp5446
VUNKN_REGION:20
p5447
aa(lp5448
(lp5449
VUNKN_REGION:20
p5450
aaasS'nlx_cell_100208'
p5451
(lp5452
(lp5453
VUNKN_REGION:4645
p5454
aVUNKN_REGION:240
p5455
aa(lp5456
(lp5457
VUNKN_REGION:4645
p5458
aVUNKN_REGION:240
p5459
aaasS'nifext_120'
p5460
(lp5461
(lp5462
VABA_REGION:507
p5463
aS'Missing:(main)'
p5464
aVHBP_MORPHOLOGY:0000030
p5465
aa(lp5466
(lp5467
VABA_REGION:507
p5468
aS'Missing:(main)'
p5469
aVHBP_MORPHOLOGY:0000030
p5470
aaasS'nlx_151687'
p5471
(lp5472
(lp5473
S'Species:bee'
p5474
aS'Missing:) Kenyon'
p5475
aa(lp5476
(lp5477
S'Species:bee'
p5478
aS'Missing:) Kenyon'
p5479
aaasS'nlx_146841'
p5480
(lp5481
(lp5482
VUNKN_REGION:7300
p5483
aS'Missing:fascicle'
p5484
aasS'nifext_81'
p5485
(lp5486
(lp5487
VABA_REGION:315
p5488
aVHBP_MORPHOLOGY:0000006
p5489
aa(lp5490
(lp5491
VABA_REGION:315
p5492
aVHBP_MORPHOLOGY:0000006
p5493
aaa(lp5494
(lp5495
VABA_REGION:315
p5496
aVHBP_MORPHOLOGY:0000006
p5497
aaasS'nlx_148569'
p5498
(lp5499
(lp5500
VHBP_NEUROTRANSMITTER:0000007
p5501
aS'Missing:PPL2c'
p5502
aa(lp5503
(lp5504
VHBP_NEUROTRANSMITTER:0000007
p5505
aS'Missing:PPL2c'
p5506
aaasS'nlx_148568'
p5507
(lp5508
(lp5509
VHBP_NEUROTRANSMITTER:0000007
p5510
aS'Missing:PPL2ab'
p5511
aa(lp5512
(lp5513
VHBP_NEUROTRANSMITTER:0000007
p5514
aS'Missing:PPL2ab'
p5515
aaasS'BAMSC1122'
p5516
(lp5517
(lp5518
VUNKN_REGION:4677
p5519
aS'Missing:deep'
p5520
aVHBP_MORPHOLOGY:0000028
p5521
aVHBP_MORPHOLOGY:0000023
p5522
aa(lp5523
(lp5524
VUNKN_REGION:4677
p5525
aS'Missing:deep'
p5526
aVHBP_MORPHOLOGY:0000028
p5527
aVHBP_MORPHOLOGY:0000023
p5528
aaasS'nlx_148563'
p5529
(lp5530
(lp5531
VHBP_NEUROTRANSMITTER:0000007
p5532
aS'Missing:PAL'
p5533
aa(lp5534
(lp5535
VHBP_NEUROTRANSMITTER:0000007
p5536
aS'Missing:PAL'
p5537
aaasS'nlx_148562'
p5538
(lp5539
(lp5540
VHBP_NEUROTRANSMITTER:0000007
p5541
aS'Missing:PAM'
p5542
aa(lp5543
(lp5544
VHBP_NEUROTRANSMITTER:0000007
p5545
aS'Missing:PAM'
p5546
aaasS'nlx_148567'
p5547
(lp5548
(lp5549
VHBP_NEUROTRANSMITTER:0000007
p5550
aS'Missing:PPL1'
p5551
aa(lp5552
(lp5553
VHBP_NEUROTRANSMITTER:0000007
p5554
aS'Missing:PPL1'
p5555
aaasS'nlx_148566'
p5556
(lp5557
(lp5558
VHBP_NEUROTRANSMITTER:0000007
p5559
aS'Missing:PPM3'
p5560
aa(lp5561
(lp5562
VHBP_NEUROTRANSMITTER:0000007
p5563
aS'Missing:PPM3'
p5564
aaasS'nlx_148565'
p5565
(lp5566
(lp5567
VHBP_NEUROTRANSMITTER:0000007
p5568
aS'Missing:PPM2'
p5569
aa(lp5570
(lp5571
VHBP_NEUROTRANSMITTER:0000007
p5572
aS'Missing:PPM2'
p5573
aaasS'nlx_148486'
p5574
(lp5575
(lp5576
VUNKN_REGION:7
p5577
aasS'nlx_146741'
p5578
(lp5579
(lp5580
asS'nlx_cell_090807'
p5581
(lp5582
(lp5583
VABA_REGION:375
p5584
aVABA_REGION:382
p5585
aVUNKN_REGION:5667
p5586
aa(lp5587
(lp5588
VABA_REGION:375
p5589
aVABA_REGION:382
p5590
aVUNKN_REGION:5667
p5591
aaa(lp5592
(lp5593
VABA_REGION:375
p5594
aVABA_REGION:382
p5595
aVUNKN_REGION:5667
p5596
aaasS'nlx_146743'
p5597
(lp5598
(lp5599
asS'nlx_146742'
p5600
(lp5601
(lp5602
asS'nlx_148428'
p5603
(lp5604
(lp5605
a(lp5606
(lp5607
aasS'nlx_cell_091001'
p5608
(lp5609
(lp5610
VUNKN_REGION:4715
p5611
aVHBP_MORPHOLOGY:0000035
p5612
aa(lp5613
(lp5614
VUNKN_REGION:4715
p5615
aVHBP_MORPHOLOGY:0000035
p5616
aaa(lp5617
(lp5618
VUNKN_REGION:4715
p5619
aVHBP_MORPHOLOGY:0000035
p5620
aaasS'nlx_151908'
p5621
(lp5622
(lp5623
a(lp5624
(lp5625
aasS'nlx_cell_091005'
p5626
(lp5627
(lp5628
VUNKN_REGION:4715
p5629
aVHBP_MORPHOLOGY:0000034
p5630
aa(lp5631
(lp5632
VUNKN_REGION:4715
p5633
aVHBP_MORPHOLOGY:0000034
p5634
aaa(lp5635
(lp5636
VUNKN_REGION:4715
p5637
aVHBP_MORPHOLOGY:0000034
p5638
aaasS'nlx_cell_091004'
p5639
(lp5640
(lp5641
VABA_REGION:375
p5642
aVUNKN_REGION:7284
p5643
aVHBP_MORPHOLOGY:0000065
p5644
aS'Size:narrow'
p5645
aa(lp5646
(lp5647
VABA_REGION:375
p5648
aVUNKN_REGION:7284
p5649
aVHBP_MORPHOLOGY:0000065
p5650
aS'Size:narrow'
p5651
aaasS'nlx_148099'
p5652
(lp5653
(lp5654
asS'nlx_148098'
p5655
(lp5656
(lp5657
asS'nlx_148097'
p5658
(lp5659
(lp5660
S'Function:Projection'
p5661
aasS'nlx_148095'
p5662
(lp5663
(lp5664
S'Function:Local'
p5665
aVHBP_DEVELOPMENTAL:0000007
p5666
aVUNKN_REGION:20
p5667
aa(lp5668
(lp5669
S'Function:Local'
p5670
aVHBP_DEVELOPMENTAL:0000007
p5671
aVUNKN_REGION:20
p5672
aaasS'nlx_148093'
p5673
(lp5674
(lp5675
VHBP_DEVELOPMENTAL:0000x
p5676
aS'Missing:/'
p5677
aVUNKN_REGION:23
p5678
aS'Function:olfactory'
p5679
aS'Function:receptor'
p5680
aa(lp5681
(lp5682
VHBP_DEVELOPMENTAL:0000x
p5683
aS'Missing:/'
p5684
aVUNKN_REGION:23
p5685
aS'Function:olfactory'
p5686
aS'Function:receptor'
p5687
aaasS'nlx_147785'
p5688
(lp5689
(lp5690
S'Function:motor'
p5691
aasS'nlx_148091'
p5692
(lp5693
(lp5694
VHBP_DEVELOPMENTAL:0000007
p5695
aS'Function:olfactory'
p5696
aS'Function:receptor'
p5697
aa(lp5698
(lp5699
VHBP_DEVELOPMENTAL:0000007
p5700
aS'Function:olfactory'
p5701
aS'Function:receptor'
p5702
aaasS'nifext_91'
p5703
(lp5704
(lp5705
a(lp5706
(lp5707
aasS'nlx_147835'
p5708
(lp5709
(lp5710
VHBP_NEUROTRANSMITTER:0000007
p5711
aa(lp5712
(lp5713
VHBP_NEUROTRANSMITTER:0000007
p5714
aaasS'nlx_147836'
p5715
(lp5716
(lp5717
VUNKN_REGION:15
p5718
aVHBP_NEUROTRANSMITTER:0000007
p5719
aa(lp5720
(lp5721
VUNKN_REGION:15
p5722
aVHBP_NEUROTRANSMITTER:0000007
p5723
aaasS'nlx_19563'
p5724
(lp5725
(lp5726
VABA_REGION:754
p5727
aS'Size:large'
p5728
aS'Missing:Type 2'
p5729
aVUNKN_REGION:7278
p5730
aasS'nlx_147837'
p5731
(lp5732
(lp5733
VHBP_NEUROTRANSMITTER:0000001
p5734
aa(lp5735
(lp5736
VHBP_NEUROTRANSMITTER:0000001
p5737
aaasS'sao770302354'
p5738
(lp5739
(lp5740
VABA_REGION:315
p5741
aVHBP_MORPHOLOGY:0000013
p5742
aS'Missing:smooth'
p5743
aa(lp5744
(lp5745
VABA_REGION:315
p5746
aVHBP_MORPHOLOGY:0000013
p5747
aS'Missing:smooth'
p5748
aaasS'nifext_95'
p5749
(lp5750
(lp5751
VHBP_EPHYS:0000040
p5752
aasS'nifext_94'
p5753
(lp5754
(lp5755
S'Function:principal'
p5756
aasS'nlx_148586'
p5757
(lp5758
(lp5759
VUNKN_REGION:7
p5760
aS'Missing:lobe arborizing'
p5761
aa(lp5762
(lp5763
VUNKN_REGION:7
p5764
aS'Missing:lobe arborizing'
p5765
aaasS'nifext_153'
p5766
(lp5767
(lp5768
VABA_REGION:726
p5769
aVHBP_MORPHOLOGY:0000026
p5770
aa(lp5771
(lp5772
VABA_REGION:726
p5773
aVHBP_MORPHOLOGY:0000026
p5774
aaa(lp5775
(lp5776
VABA_REGION:726
p5777
aVHBP_MORPHOLOGY:0000026
p5778
aaa(lp5779
(lp5780
VABA_REGION:726
p5781
aVHBP_MORPHOLOGY:0000026
p5782
aaa(lp5783
(lp5784
VABA_REGION:726
p5785
aVHBP_MORPHOLOGY:0000026
p5786
aaasS'nlx_147832'
p5787
(lp5788
(lp5789
asS'nlx_148596'
p5790
(lp5791
(lp5792
a(lp5793
(lp5794
aasS'nlx_148597'
p5795
(lp5796
(lp5797
a(lp5798
(lp5799
aasS'nlx_148594'
p5800
(lp5801
(lp5802
VUNKN_REGION:14
p5803
aVHBP_MORPHOLOGY:0000028
p5804
aS'Missing:lobe arborizing'
p5805
aa(lp5806
(lp5807
VUNKN_REGION:14
p5808
aVHBP_MORPHOLOGY:0000028
p5809
aS'Missing:lobe arborizing'
p5810
aaasS'nlx_148595'
p5811
(lp5812
(lp5813
a(lp5814
(lp5815
aasS'nlx_148592'
p5816
(lp5817
(lp5818
VHBP_MORPHOLOGY:0000028
p5819
aS'Missing:lobe arborizing'
p5820
aa(lp5821
(lp5822
VHBP_MORPHOLOGY:0000028
p5823
aS'Missing:lobe arborizing'
p5824
aaasS'nlx_148593'
p5825
(lp5826
(lp5827
VUNKN_REGION:14
p5828
aVHBP_MORPHOLOGY:0000028
p5829
aS'Missing:lobe arborizing'
p5830
aa(lp5831
(lp5832
VUNKN_REGION:14
p5833
aVHBP_MORPHOLOGY:0000028
p5834
aS'Missing:lobe arborizing'
p5835
aaasS'nlx_148590'
p5836
(lp5837
(lp5838
VUNKN_REGION:14
p5839
aVHBP_MORPHOLOGY:0000028
p5840
aS'Missing:lobe arborizing'
p5841
aa(lp5842
(lp5843
VUNKN_REGION:14
p5844
aVHBP_MORPHOLOGY:0000028
p5845
aS'Missing:lobe arborizing'
p5846
aaasS'nlx_148591'
p5847
(lp5848
(lp5849
VUNKN_REGION:14
p5850
aS'Missing:lobe arborizing'
p5851
aa(lp5852
(lp5853
VUNKN_REGION:14
p5854
aS'Missing:lobe arborizing'
p5855
aaasS'nlx_149065'
p5856
(lp5857
(lp5858
VHBP_DEVELOPMENTAL:0000007
p5859
aVUNKN_REGION:46
p5860
aS'Function:neurosecretory'
p5861
aa(lp5862
(lp5863
VHBP_DEVELOPMENTAL:0000007
p5864
aVUNKN_REGION:46
p5865
aS'Function:neurosecretory'
p5866
aaasS'nlx_148953'
p5867
(lp5868
(lp5869
VHBP_NEUROTRANSMITTER:0000007
p5870
aS'Missing:dorso-'
p5871
aVUNKN_REGION:15
p5872
aasS'nlx_47009'
p5873
(lp5874
(lp5875
VABA_REGION:726
p5876
aS'Missing:MOPP'
p5877
aasS'nlx_147910'
p5878
(lp5879
(lp5880
S'Function:Gustatory'
p5881
aS'Function:receptor'
p5882
aa(lp5883
(lp5884
S'Function:Gustatory'
p5885
aS'Function:receptor'
p5886
aaasS'nlx_32288'
p5887
(lp5888
(lp5889
VABA_REGION:726
p5890
aS'Missing:HICAP'
p5891
aa(lp5892
(lp5893
VABA_REGION:726
p5894
aS'Missing:HICAP'
p5895
aaa(lp5896
(lp5897
VABA_REGION:726
p5898
aS'Missing:HICAP'
p5899
aaasS'nlx_92500'
p5900
(lp5901
(lp5902
VABA_REGION:375
p5903
aVABA_REGION:382
p5904
aS'Missing:lacunosum moleculare'
p5905
aa(lp5906
(lp5907
VABA_REGION:375
p5908
aVABA_REGION:382
p5909
aS'Missing:lacunosum moleculare'
p5910
aaasS'nlx_148440'
p5911
(lp5912
(lp5913
a(lp5914
(lp5915
aasS'BAMSC990'
p5916
(lp5917
(lp5918
VABA_REGION:301
p5919
aS'Missing:superficial'
p5920
aVHBP_MORPHOLOGY:0000011
p5921
aa(lp5922
(lp5923
VABA_REGION:301
p5924
aS'Missing:superficial'
p5925
aVHBP_MORPHOLOGY:0000011
p5926
aaa(lp5927
(lp5928
VABA_REGION:301
p5929
aS'Missing:superficial'
p5930
aVHBP_MORPHOLOGY:0000011
p5931
aaasS'BAMSC991'
p5932
(lp5933
(lp5934
VABA_REGION:301
p5935
aS'Missing:common'
p5936
aVHBP_MORPHOLOGY:0000011
p5937
aa(lp5938
(lp5939
VABA_REGION:301
p5940
aS'Missing:common'
p5941
aVHBP_MORPHOLOGY:0000011
p5942
aaa(lp5943
(lp5944
VABA_REGION:301
p5945
aS'Missing:common'
p5946
aVHBP_MORPHOLOGY:0000011
p5947
aaasS'BAMSC992'
p5948
(lp5949
(lp5950
VABA_REGION:301
p5951
aVHBP_MORPHOLOGY:0000011
p5952
aVHBP_MORPHOLOGY:0000007
p5953
aa(lp5954
(lp5955
VABA_REGION:301
p5956
aVHBP_MORPHOLOGY:0000011
p5957
aVHBP_MORPHOLOGY:0000007
p5958
aaa(lp5959
(lp5960
VABA_REGION:301
p5961
aVHBP_MORPHOLOGY:0000011
p5962
aVHBP_MORPHOLOGY:0000007
p5963
aaa(lp5964
(lp5965
VABA_REGION:301
p5966
aVHBP_MORPHOLOGY:0000011
p5967
aVHBP_MORPHOLOGY:0000007
p5968
aaasS'BAMSC993'
p5969
(lp5970
(lp5971
VABA_REGION:301
p5972
aa(lp5973
(lp5974
VABA_REGION:301
p5975
aaa(lp5976
(lp5977
VABA_REGION:301
p5978
aaasS'Tri0001043'
p5979
(lp5980
(lp5981
VUNKN_REGION:7262
p5982
aS'Missing:swim'
p5983
aa(lp5984
(lp5985
VUNKN_REGION:7262
p5986
aS'Missing:swim'
p5987
aaa(lp5988
(lp5989
VUNKN_REGION:7262
p5990
aS'Missing:swim'
p5991
aaa(lp5992
(lp5993
VUNKN_REGION:7262
p5994
aS'Missing:swim'
p5995
aaasS'nlx_54328'
p5996
(lp5997
(lp5998
VABA_REGION:726
p5999
aVHBP_MORPHOLOGY:0000022
p6000
aa(lp6001
(lp6002
VABA_REGION:726
p6003
aVHBP_MORPHOLOGY:0000022
p6004
aaasS'nlx_147484'
p6005
(lp6006
(lp6007
asS'nlx_151678'
p6008
(lp6009
(lp6010
VUNKN_REGION:4645
p6011
aVUNKN_REGION:7226
p6012
aVHBP_LAYER:0000122
p6013
aasS'nlx_148187'
p6014
(lp6015
(lp6016
asS'nlx_148186'
p6017
(lp6018
(lp6019
asS'nlx_148189'
p6020
(lp6021
(lp6022
S'Size:Small'
p6023
aS'Missing:field'
p6024
aS'Missing:field'
p6025
aS'Function:central'
p6026
aa(lp6027
(lp6028
S'Size:Small'
p6029
aS'Missing:field'
p6030
aS'Missing:field'
p6031
aS'Function:central'
p6032
aaasS'nlx_148188'
p6033
(lp6034
(lp6035
asS'nlx_151677'
p6036
(lp6037
(lp6038
VUNKN_REGION:4645
p6039
aVUNKN_REGION:7226
p6040
aVHBP_LAYER:0000122
p6041
aS'Function:projection'
p6042
aasS'nlx_151676'
p6043
(lp6044
(lp6045
VUNKN_REGION:4645
p6046
aVUNKN_REGION:7226
p6047
aS'Missing:marginal'
p6048
aasS'nlx_147768'
p6049
(lp6050
(lp6051
VUNKN_REGION:7
p6052
aS'Function:neurosecretory'
p6053
aasS'nlx_148743'
p6054
(lp6055
(lp6056
VUNKN_REGION:23
p6057
aS'Function:olfactory'
p6058
aS'Function:receptor'
p6059
aa(lp6060
(lp6061
VUNKN_REGION:23
p6062
aS'Function:olfactory'
p6063
aS'Function:receptor'
p6064
aaasS'nlx_148742'
p6065
(lp6066
(lp6067
VUNKN_REGION:23
p6068
aS'Function:olfactory'
p6069
aS'Function:receptor'
p6070
aa(lp6071
(lp6072
VUNKN_REGION:23
p6073
aS'Function:olfactory'
p6074
aS'Function:receptor'
p6075
aaasS'nlx_148741'
p6076
(lp6077
(lp6078
VUNKN_REGION:23
p6079
aS'Function:olfactory'
p6080
aS'Function:receptor'
p6081
aa(lp6082
(lp6083
VUNKN_REGION:23
p6084
aS'Function:olfactory'
p6085
aS'Function:receptor'
p6086
aaasS'nlx_148740'
p6087
(lp6088
(lp6089
VUNKN_REGION:23
p6090
aS'Function:olfactory'
p6091
aS'Function:receptor'
p6092
aa(lp6093
(lp6094
VUNKN_REGION:23
p6095
aS'Function:olfactory'
p6096
aS'Function:receptor'
p6097
aaasS'nlx_148745'
p6098
(lp6099
(lp6100
VUNKN_REGION:23
p6101
aS'Function:olfactory'
p6102
aS'Function:receptor'
p6103
aa(lp6104
(lp6105
VUNKN_REGION:23
p6106
aS'Function:olfactory'
p6107
aS'Function:receptor'
p6108
aaasS'nlx_148744'
p6109
(lp6110
(lp6111
VUNKN_REGION:23
p6112
aS'Function:olfactory'
p6113
aS'Function:receptor'
p6114
aa(lp6115
(lp6116
VUNKN_REGION:23
p6117
aS'Function:olfactory'
p6118
aS'Function:receptor'
p6119
aaasS'nifext_55'
p6120
(lp6121
(lp6122
VABA_REGION:315
p6123
aVHBP_MORPHOLOGY:0000017
p6124
aa(lp6125
(lp6126
VABA_REGION:315
p6127
aVHBP_MORPHOLOGY:0000017
p6128
aaasS'nlx_152082'
p6129
(lp6130
(lp6131
VUNKN_REGION:7297
p6132
aS'Missing:collateral'
p6133
aS'Function:inhibitory'
p6134
aasS'nifext_57'
p6135
(lp6136
(lp6137
VABA_REGION:315
p6138
aVHBP_MORPHOLOGY:0000007
p6139
aa(lp6140
(lp6141
VABA_REGION:315
p6142
aVHBP_MORPHOLOGY:0000007
p6143
aaa(lp6144
(lp6145
VABA_REGION:315
p6146
aVHBP_MORPHOLOGY:0000007
p6147
aaa(lp6148
(lp6149
VABA_REGION:315
p6150
aVHBP_MORPHOLOGY:0000007
p6151
aaasS'nifext_56'
p6152
(lp6153
(lp6154
VABA_REGION:315
p6155
aVHBP_MORPHOLOGY:0000019
p6156
aa(lp6157
(lp6158
VABA_REGION:315
p6159
aVHBP_MORPHOLOGY:0000019
p6160
aaa(lp6161
(lp6162
VABA_REGION:315
p6163
aVHBP_MORPHOLOGY:0000019
p6164
aaa(lp6165
(lp6166
VABA_REGION:315
p6167
aVHBP_MORPHOLOGY:0000019
p6168
aaa(lp6169
(lp6170
VABA_REGION:315
p6171
aVHBP_MORPHOLOGY:0000019
p6172
aaa(lp6173
(lp6174
VABA_REGION:315
p6175
aVHBP_MORPHOLOGY:0000019
p6176
aaasS'nifext_51'
p6177
(lp6178
(lp6179
VABA_REGION:315
p6180
aVHBP_MORPHOLOGY:0000029
p6181
aVHBP_LAYER:0000141
p6182
aa(lp6183
(lp6184
VABA_REGION:315
p6185
aVHBP_MORPHOLOGY:0000029
p6186
aVHBP_LAYER:0000141
p6187
aaa(lp6188
(lp6189
VABA_REGION:315
p6190
aVHBP_MORPHOLOGY:0000029
p6191
aVHBP_LAYER:0000141
p6192
aaa(lp6193
(lp6194
VABA_REGION:315
p6195
aVHBP_MORPHOLOGY:0000029
p6196
aVHBP_LAYER:0000141
p6197
aaasS'nifext_50'
p6198
(lp6199
(lp6200
VABA_REGION:315
p6201
aVHBP_MORPHOLOGY:0000001
p6202
aVHBP_LAYER:0000141
p6203
aa(lp6204
(lp6205
VABA_REGION:315
p6206
aVHBP_MORPHOLOGY:0000001
p6207
aVHBP_LAYER:0000141
p6208
aaa(lp6209
(lp6210
VABA_REGION:315
p6211
aVHBP_MORPHOLOGY:0000001
p6212
aVHBP_LAYER:0000141
p6213
aaa(lp6214
(lp6215
VABA_REGION:315
p6216
aVHBP_MORPHOLOGY:0000001
p6217
aVHBP_LAYER:0000141
p6218
aaa(lp6219
(lp6220
VABA_REGION:315
p6221
aVHBP_MORPHOLOGY:0000001
p6222
aVHBP_LAYER:0000141
p6223
aaa(lp6224
(lp6225
VABA_REGION:315
p6226
aVHBP_MORPHOLOGY:0000001
p6227
aVHBP_LAYER:0000141
p6228
aaa(lp6229
(lp6230
VABA_REGION:315
p6231
aVHBP_MORPHOLOGY:0000001
p6232
aVHBP_LAYER:0000141
p6233
aaasS'nifext_53'
p6234
(lp6235
(lp6236
VABA_REGION:315
p6237
aVHBP_MORPHOLOGY:0000013
p6238
aVHBP_LAYER:0000004
p6239
aa(lp6240
(lp6241
VABA_REGION:315
p6242
aVHBP_MORPHOLOGY:0000013
p6243
aVHBP_LAYER:0000004
p6244
aaa(lp6245
(lp6246
VABA_REGION:315
p6247
aVHBP_MORPHOLOGY:0000013
p6248
aVHBP_LAYER:0000004
p6249
aaa(lp6250
(lp6251
VABA_REGION:315
p6252
aVHBP_MORPHOLOGY:0000013
p6253
aVHBP_LAYER:0000004
p6254
aaasS'nlx_152084'
p6255
(lp6256
(lp6257
VUNKN_REGION:13
p6258
aS'Function:relay'
p6259
aasS'nifext_90'
p6260
(lp6261
(lp6262
a(lp6263
(lp6264
aasS'nlx_148449'
p6265
(lp6266
(lp6267
asS'nlx_148248'
p6268
(lp6269
(lp6270
S'Orientation:Horizontal'
p6271
aVHBP_MORPHOLOGY:0000027
p6272
aS'Missing:fiber system'
p6273
aS'Missing:fiber system'
p6274
aasS'nlx_152108'
p6275
(lp6276
(lp6277
VUNKN_REGION:50
p6278
aasS'nlx_79073'
p6279
(lp6280
(lp6281
a(lp6282
(lp6283
aa(lp6284
(lp6285
aasS'nlx_152107'
p6286
(lp6287
(lp6288
VUNKN_REGION:50
p6289
aasS'nifext_133'
p6290
(lp6291
(lp6292
VABA_REGION:512
p6293
aVHBP_MORPHOLOGY:0000037
p6294
aasS'nlx_147813'
p6295
(lp6296
(lp6297
asS'nlx_152100'
p6298
(lp6299
(lp6300
VUNKN_REGION:7287
p6301
aS'Missing:C non-'
p6302
aS'Function:nociceptive'
p6303
aasS'nifext_130'
p6304
(lp6305
(lp6306
VABA_REGION:512
p6307
aVHBP_MORPHOLOGY:0000013
p6308
aa(lp6309
(lp6310
VABA_REGION:512
p6311
aVHBP_MORPHOLOGY:0000013
p6312
aaa(lp6313
(lp6314
VABA_REGION:512
p6315
aVHBP_MORPHOLOGY:0000013
p6316
aaasS'nlx_147816'
p6317
(lp6318
(lp6319
asS'nifext_136'
p6320
(lp6321
(lp6322
VABA_REGION:607
p6323
aVUNKN_REGION:7262
p6324
aS'Missing:)'
p6325
aVHBP_MORPHOLOGY:0000040
p6326
aa(lp6327
(lp6328
VABA_REGION:607
p6329
aVUNKN_REGION:7262
p6330
aS'Missing:)'
p6331
aVHBP_MORPHOLOGY:0000040
p6332
aaa(lp6333
(lp6334
VABA_REGION:607
p6335
aVUNKN_REGION:7262
p6336
aS'Missing:)'
p6337
aVHBP_MORPHOLOGY:0000040
p6338
aaa(lp6339
(lp6340
VABA_REGION:607
p6341
aVUNKN_REGION:7262
p6342
aS'Missing:)'
p6343
aVHBP_MORPHOLOGY:0000040
p6344
aaasS'nifext_135'
p6345
(lp6346
(lp6347
VABA_REGION:607
p6348
aVUNKN_REGION:7262
p6349
aS'Missing:)'
p6350
aVHBP_MORPHOLOGY:0000042
p6351
aa(lp6352
(lp6353
VABA_REGION:607
p6354
aVUNKN_REGION:7262
p6355
aS'Missing:)'
p6356
aVHBP_MORPHOLOGY:0000042
p6357
aaa(lp6358
(lp6359
VABA_REGION:607
p6360
aVUNKN_REGION:7262
p6361
aS'Missing:)'
p6362
aVHBP_MORPHOLOGY:0000042
p6363
aaasS'sao1103104164'
p6364
(lp6365
(lp6366
VUNKN_REGION:575
p6367
aVHBP_MORPHOLOGY:0000045
p6368
aVHBP_MORPHOLOGY:0000047
p6369
aa(lp6370
(lp6371
VUNKN_REGION:575
p6372
aVHBP_MORPHOLOGY:0000045
p6373
aVHBP_MORPHOLOGY:0000047
p6374
aaa(lp6375
(lp6376
VUNKN_REGION:575
p6377
aVHBP_MORPHOLOGY:0000045
p6378
aVHBP_MORPHOLOGY:0000047
p6379
aaa(lp6380
(lp6381
VUNKN_REGION:575
p6382
aVHBP_MORPHOLOGY:0000045
p6383
aVHBP_MORPHOLOGY:0000047
p6384
aaasS'nlx_146561'
p6385
(lp6386
(lp6387
asS'nlx_146560'
p6388
(lp6389
(lp6390
asS'nifext_70'
p6391
(lp6392
(lp6393
VABA_REGION:607
p6394
aVUNKN_REGION:7
p6395
aS'Missing:)'
p6396
aVHBP_MORPHOLOGY:0000073
p6397
aVHBP_MORPHOLOGY:0000072
p6398
aasS'nlx_146562'
p6399
(lp6400
(lp6401
asS'nlx_149021'
p6402
(lp6403
(lp6404
VUNKN_REGION:701
p6405
aasS'nlx_148564'
p6406
(lp6407
(lp6408
VHBP_NEUROTRANSMITTER:0000007
p6409
aS'Missing:PPM1'
p6410
aa(lp6411
(lp6412
VHBP_NEUROTRANSMITTER:0000007
p6413
aS'Missing:PPM1'
p6414
aaasS'nlx_148478'
p6415
(lp6416
(lp6417
S'Size:Giant'
p6418
aVUNKN_REGION:7262
p6419
aS'Missing:radius'
p6420
aasS'nlx_148526'
p6421
(lp6422
(lp6423
asS'nlx_148525'
p6424
(lp6425
(lp6426
asS'nlx_148522'
p6427
(lp6428
(lp6429
asS'nlx_148521'
p6430
(lp6431
(lp6432
VHBP_DEVELOPMENTAL:0000007
p6433
aS'Missing:Pdf'
p6434
aasS'nlx_29378'
p6435
(lp6436
(lp6437
VABA_REGION:754
p6438
aS'Missing:Islets of Calleja'
p6439
aVHBP_MORPHOLOGY:0000011
p6440
aVHBP_MORPHOLOGY:0000026
p6441
aa(lp6442
(lp6443
VABA_REGION:754
p6444
aS'Missing:Islets of Calleja'
p6445
aVHBP_MORPHOLOGY:0000011
p6446
aVHBP_MORPHOLOGY:0000026
p6447
aaasS'nlx_148529'
p6448
(lp6449
(lp6450
asS'nlx_148121'
p6451
(lp6452
(lp6453
a(lp6454
(lp6455
aasS'nlx_147382'
p6456
(lp6457
(lp6458
S'Size:Large'
p6459
aS'Missing:field'
p6460
aasS'nlx_147383'
p6461
(lp6462
(lp6463
asS'nlx_146707'
p6464
(lp6465
(lp6466
asS'nlx_147381'
p6467
(lp6468
(lp6469
asS'nlx_147834'
p6470
(lp6471
(lp6472
S'Function:Neurosecretory'
p6473
aasS'nlx_146740'
p6474
(lp6475
(lp6476
asS'nlx_148057'
p6477
(lp6478
(lp6479
a(lp6480
(lp6481
aasS'nlx_148056'
p6482
(lp6483
(lp6484
a(lp6485
(lp6486
aasS'nlx_147749'
p6487
(lp6488
(lp6489
asS'nlx_148211'
p6490
(lp6491
(lp6492
a(lp6493
(lp6494
aasS'nlx_151893'
p6495
(lp6496
(lp6497
VABA_REGION:56
p6498
aS'Missing:shell'
p6499
aasS'nlx_151892'
p6500
(lp6501
(lp6502
VABA_REGION:56
p6503
aS'Missing:core nucleus'
p6504
aasS'nlx_151895'
p6505
(lp6506
(lp6507
VABA_REGION:512
p6508
aS'Missing:deep nucleus'
p6509
aS'Function:principal'
p6510
aasS'nlx_151894'
p6511
(lp6512
(lp6513
VABA_REGION:286
p6514
aS'Function:principal'
p6515
aa(lp6516
(lp6517
VABA_REGION:286
p6518
aS'Function:principal'
p6519
aaasS'nlx_144208'
p6520
(lp6521
(lp6522
a(lp6523
(lp6524
aasS'nlx_144209'
p6525
(lp6526
(lp6527
asS'nlx_148840'
p6528
(lp6529
(lp6530
VHBP_DEVELOPMENTAL:0000007
p6531
aasS'nifext_132'
p6532
(lp6533
(lp6534
VABA_REGION:512
p6535
aVHBP_MORPHOLOGY:0000042
p6536
aa(lp6537
(lp6538
VABA_REGION:512
p6539
aVHBP_MORPHOLOGY:0000042
p6540
aaa(lp6541
(lp6542
VABA_REGION:512
p6543
aVHBP_MORPHOLOGY:0000042
p6544
aaasS'sao1236796660'
p6545
(lp6546
(lp6547
VABA_REGION:315
p6548
aVHBP_MORPHOLOGY:0000013
p6549
aVHBP_MORPHOLOGY:0000011
p6550
aa(lp6551
(lp6552
VABA_REGION:315
p6553
aVHBP_MORPHOLOGY:0000013
p6554
aVHBP_MORPHOLOGY:0000011
p6555
aaasS'nlx_cell_091002'
p6556
(lp6557
(lp6558
VUNKN_REGION:4715
p6559
aS'Size:small'
p6560
aVHBP_MORPHOLOGY:0000073
p6561
aasS'nlx_153868'
p6562
(lp6563
(lp6564
VUNKN_REGION:4715
p6565
aS'Missing:deep'
p6566
aVHBP_MORPHOLOGY:0000001
p6567
aa(lp6568
(lp6569
VUNKN_REGION:4715
p6570
aS'Missing:deep'
p6571
aVHBP_MORPHOLOGY:0000001
p6572
aaa(lp6573
(lp6574
VUNKN_REGION:4715
p6575
aS'Missing:deep'
p6576
aVHBP_MORPHOLOGY:0000001
p6577
aaa(lp6578
(lp6579
VUNKN_REGION:4715
p6580
aS'Missing:deep'
p6581
aVHBP_MORPHOLOGY:0000001
p6582
aaasS'nlx_147774'
p6583
(lp6584
(lp6585
VUNKN_REGION:7
p6586
aS'Function:neurosecretory'
p6587
aasS'nlx_157279'
p6588
(lp6589
(lp6590
VABA_REGION:315
p6591
aVUNKN_REGION:34
p6592
aVUNKN_REGION:7263
p6593
aS'Missing:Area'
p6594
aVHBP_LAYER:0000002
p6595
aVNCBI_GENE:19293
p6596
aa(lp6597
(lp6598
VABA_REGION:315
p6599
aVUNKN_REGION:34
p6600
aVUNKN_REGION:7263
p6601
aS'Missing:Area'
p6602
aVHBP_LAYER:0000002
p6603
aVNCBI_GENE:19293
p6604
aaa(lp6605
(lp6606
VABA_REGION:315
p6607
aVUNKN_REGION:34
p6608
aVUNKN_REGION:7263
p6609
aS'Missing:Area'
p6610
aVHBP_LAYER:0000002
p6611
aVNCBI_GENE:19293
p6612
aaa(lp6613
(lp6614
VABA_REGION:315
p6615
aVUNKN_REGION:34
p6616
aVUNKN_REGION:7263
p6617
aS'Missing:Area'
p6618
aVHBP_LAYER:0000002
p6619
aVNCBI_GENE:19293
p6620
aaasS'nlx_148487'
p6621
(lp6622
(lp6623
VUNKN_REGION:7
p6624
aasS'nlx_149020'
p6625
(lp6626
(lp6627
VHBP_DEVELOPMENTAL:0000007
p6628
aS'Missing:tachykinin'
p6629
aS'Missing:tachykinin'
p6630
aVUNKN_REGION:701
p6631
aasS'nlx_149023'
p6632
(lp6633
(lp6634
VHBP_DEVELOPMENTAL:0000007
p6635
aS'Missing:leucokinin'
p6636
aS'Missing:leucokinin'
p6637
aVUNKN_REGION:701
p6638
aasS'nlx_152516'
p6639
(lp6640
(lp6641
VUNKN_REGION:50
p6642
aa(lp6643
(lp6644
VUNKN_REGION:50
p6645
aaa(lp6646
(lp6647
VUNKN_REGION:50
p6648
aaasS'nlx_152511'
p6649
(lp6650
(lp6651
VUNKN_REGION:50
p6652
aasS'nlx_152510'
p6653
(lp6654
(lp6655
VUNKN_REGION:50
p6656
aa(lp6657
(lp6658
VUNKN_REGION:50
p6659
aaa(lp6660
(lp6661
VUNKN_REGION:50
p6662
aaasS'nlx_148242'
p6663
(lp6664
(lp6665
S'Orientation:Horizontal'
p6666
aVHBP_MORPHOLOGY:0000027
p6667
aS'Missing:fiber system'
p6668
aS'Missing:fiber system'
p6669
aasS'nlx_146713'
p6670
(lp6671
(lp6672
as.